	.file	"dorado.cpp"
	.section	.rodata
	.type	_ZStL19piecewise_construct, @object
	.size	_ZStL19piecewise_construct, 1
_ZStL19piecewise_construct:
	.zero	1
	.section	.text._ZNSt11char_traitsIcE6assignERcRKc,"axG",@progbits,_ZNSt11char_traitsIcE6assignERcRKc,comdat
	.weak	_ZNSt11char_traitsIcE6assignERcRKc
	.type	_ZNSt11char_traitsIcE6assignERcRKc, @function
_ZNSt11char_traitsIcE6assignERcRKc:
.LFB320:
	.cfi_startproc
	pushq	%rbp
	.cfi_def_cfa_offset 16
	.cfi_offset 6, -16
	movq	%rsp, %rbp
	.cfi_def_cfa_register 6
	movq	%rdi, -8(%rbp)
	movq	%rsi, -16(%rbp)
	movq	-16(%rbp), %rax
	movzbl	(%rax), %edx
	movq	-8(%rbp), %rax
	movb	%dl, (%rax)
	nop
	popq	%rbp
	.cfi_def_cfa 7, 8
	ret
	.cfi_endproc
.LFE320:
	.size	_ZNSt11char_traitsIcE6assignERcRKc, .-_ZNSt11char_traitsIcE6assignERcRKc
	.section	.text._ZNSt11char_traitsIcE6lengthEPKc,"axG",@progbits,_ZNSt11char_traitsIcE6lengthEPKc,comdat
	.weak	_ZNSt11char_traitsIcE6lengthEPKc
	.type	_ZNSt11char_traitsIcE6lengthEPKc, @function
_ZNSt11char_traitsIcE6lengthEPKc:
.LFB324:
	.cfi_startproc
	pushq	%rbp
	.cfi_def_cfa_offset 16
	.cfi_offset 6, -16
	movq	%rsp, %rbp
	.cfi_def_cfa_register 6
	movq	%rdi, -8(%rbp)
	movq	-8(%rbp), %rax
	movq	$-1, %rcx
	movq	%rax, %rdx
	movl	$0, %eax
	movq	%rdx, %rdi
	repnz scasb
	movq	%rcx, %rax
	notq	%rax
	subq	$1, %rax
	popq	%rbp
	.cfi_def_cfa 7, 8
	ret
	.cfi_endproc
.LFE324:
	.size	_ZNSt11char_traitsIcE6lengthEPKc, .-_ZNSt11char_traitsIcE6lengthEPKc
	.section	.text._ZNSt11char_traitsIDsE6assignERDsRKDs,"axG",@progbits,_ZNSt11char_traitsIDsE6assignERDsRKDs,comdat
	.weak	_ZNSt11char_traitsIDsE6assignERDsRKDs
	.type	_ZNSt11char_traitsIDsE6assignERDsRKDs, @function
_ZNSt11char_traitsIDsE6assignERDsRKDs:
.LFB348:
	.cfi_startproc
	pushq	%rbp
	.cfi_def_cfa_offset 16
	.cfi_offset 6, -16
	movq	%rsp, %rbp
	.cfi_def_cfa_register 6
	movq	%rdi, -8(%rbp)
	movq	%rsi, -16(%rbp)
	movq	-16(%rbp), %rax
	movzwl	(%rax), %edx
	movq	-8(%rbp), %rax
	movw	%dx, (%rax)
	nop
	popq	%rbp
	.cfi_def_cfa 7, 8
	ret
	.cfi_endproc
.LFE348:
	.size	_ZNSt11char_traitsIDsE6assignERDsRKDs, .-_ZNSt11char_traitsIDsE6assignERDsRKDs
	.section	.text._ZNSt11char_traitsIDsE2eqERKDsS2_,"axG",@progbits,_ZNSt11char_traitsIDsE2eqERKDsS2_,comdat
	.weak	_ZNSt11char_traitsIDsE2eqERKDsS2_
	.type	_ZNSt11char_traitsIDsE2eqERKDsS2_, @function
_ZNSt11char_traitsIDsE2eqERKDsS2_:
.LFB349:
	.cfi_startproc
	pushq	%rbp
	.cfi_def_cfa_offset 16
	.cfi_offset 6, -16
	movq	%rsp, %rbp
	.cfi_def_cfa_register 6
	movq	%rdi, -8(%rbp)
	movq	%rsi, -16(%rbp)
	movq	-8(%rbp), %rax
	movzwl	(%rax), %edx
	movq	-16(%rbp), %rax
	movzwl	(%rax), %eax
	cmpw	%ax, %dx
	sete	%al
	popq	%rbp
	.cfi_def_cfa 7, 8
	ret
	.cfi_endproc
.LFE349:
	.size	_ZNSt11char_traitsIDsE2eqERKDsS2_, .-_ZNSt11char_traitsIDsE2eqERKDsS2_
	.section	.text._ZNSt11char_traitsIDsE2ltERKDsS2_,"axG",@progbits,_ZNSt11char_traitsIDsE2ltERKDsS2_,comdat
	.weak	_ZNSt11char_traitsIDsE2ltERKDsS2_
	.type	_ZNSt11char_traitsIDsE2ltERKDsS2_, @function
_ZNSt11char_traitsIDsE2ltERKDsS2_:
.LFB350:
	.cfi_startproc
	pushq	%rbp
	.cfi_def_cfa_offset 16
	.cfi_offset 6, -16
	movq	%rsp, %rbp
	.cfi_def_cfa_register 6
	movq	%rdi, -8(%rbp)
	movq	%rsi, -16(%rbp)
	movq	-8(%rbp), %rax
	movzwl	(%rax), %edx
	movq	-16(%rbp), %rax
	movzwl	(%rax), %eax
	cmpw	%ax, %dx
	setb	%al
	popq	%rbp
	.cfi_def_cfa 7, 8
	ret
	.cfi_endproc
.LFE350:
	.size	_ZNSt11char_traitsIDsE2ltERKDsS2_, .-_ZNSt11char_traitsIDsE2ltERKDsS2_
	.section	.text._ZNSt11char_traitsIDsE7compareEPKDsS2_m,"axG",@progbits,_ZNSt11char_traitsIDsE7compareEPKDsS2_m,comdat
	.weak	_ZNSt11char_traitsIDsE7compareEPKDsS2_m
	.type	_ZNSt11char_traitsIDsE7compareEPKDsS2_m, @function
_ZNSt11char_traitsIDsE7compareEPKDsS2_m:
.LFB351:
	.cfi_startproc
	pushq	%rbp
	.cfi_def_cfa_offset 16
	.cfi_offset 6, -16
	movq	%rsp, %rbp
	.cfi_def_cfa_register 6
	subq	$48, %rsp
	movq	%rdi, -24(%rbp)
	movq	%rsi, -32(%rbp)
	movq	%rdx, -40(%rbp)
	movq	$0, -8(%rbp)
.L14:
	movq	-8(%rbp), %rax
	cmpq	-40(%rbp), %rax
	jnb	.L10
	movq	-8(%rbp), %rax
	leaq	(%rax,%rax), %rdx
	movq	-32(%rbp), %rax
	addq	%rax, %rdx
	movq	-8(%rbp), %rax
	leaq	(%rax,%rax), %rcx
	movq	-24(%rbp), %rax
	addq	%rcx, %rax
	movq	%rdx, %rsi
	movq	%rax, %rdi
	call	_ZNSt11char_traitsIDsE2ltERKDsS2_
	testb	%al, %al
	je	.L11
	movl	$-1, %eax
	jmp	.L12
.L11:
	movq	-8(%rbp), %rax
	leaq	(%rax,%rax), %rdx
	movq	-24(%rbp), %rax
	addq	%rax, %rdx
	movq	-8(%rbp), %rax
	leaq	(%rax,%rax), %rcx
	movq	-32(%rbp), %rax
	addq	%rcx, %rax
	movq	%rdx, %rsi
	movq	%rax, %rdi
	call	_ZNSt11char_traitsIDsE2ltERKDsS2_
	testb	%al, %al
	je	.L13
	movl	$1, %eax
	jmp	.L12
.L13:
	addq	$1, -8(%rbp)
	jmp	.L14
.L10:
	movl	$0, %eax
.L12:
	leave
	.cfi_def_cfa 7, 8
	ret
	.cfi_endproc
.LFE351:
	.size	_ZNSt11char_traitsIDsE7compareEPKDsS2_m, .-_ZNSt11char_traitsIDsE7compareEPKDsS2_m
	.section	.text._ZNSt11char_traitsIDsE6lengthEPKDs,"axG",@progbits,_ZNSt11char_traitsIDsE6lengthEPKDs,comdat
	.weak	_ZNSt11char_traitsIDsE6lengthEPKDs
	.type	_ZNSt11char_traitsIDsE6lengthEPKDs, @function
_ZNSt11char_traitsIDsE6lengthEPKDs:
.LFB352:
	.cfi_startproc
	pushq	%rbp
	.cfi_def_cfa_offset 16
	.cfi_offset 6, -16
	movq	%rsp, %rbp
	.cfi_def_cfa_register 6
	subq	$48, %rsp
	movq	%rdi, -40(%rbp)
	movq	%fs:40, %rax
	movq	%rax, -8(%rbp)
	xorl	%eax, %eax
	movq	$0, -16(%rbp)
.L17:
	movw	$0, -18(%rbp)
	movq	-16(%rbp), %rax
	leaq	(%rax,%rax), %rdx
	movq	-40(%rbp), %rax
	addq	%rax, %rdx
	leaq	-18(%rbp), %rax
	movq	%rax, %rsi
	movq	%rdx, %rdi
	call	_ZNSt11char_traitsIDsE2eqERKDsS2_
	xorl	$1, %eax
	testb	%al, %al
	je	.L16
	addq	$1, -16(%rbp)
	jmp	.L17
.L16:
	movq	-16(%rbp), %rax
	movq	-8(%rbp), %rcx
	xorq	%fs:40, %rcx
	je	.L19
	call	__stack_chk_fail
.L19:
	leave
	.cfi_def_cfa 7, 8
	ret
	.cfi_endproc
.LFE352:
	.size	_ZNSt11char_traitsIDsE6lengthEPKDs, .-_ZNSt11char_traitsIDsE6lengthEPKDs
	.section	.text._ZNSt11char_traitsIDsE4moveEPDsPKDsm,"axG",@progbits,_ZNSt11char_traitsIDsE4moveEPDsPKDsm,comdat
	.weak	_ZNSt11char_traitsIDsE4moveEPDsPKDsm
	.type	_ZNSt11char_traitsIDsE4moveEPDsPKDsm, @function
_ZNSt11char_traitsIDsE4moveEPDsPKDsm:
.LFB354:
	.cfi_startproc
	pushq	%rbp
	.cfi_def_cfa_offset 16
	.cfi_offset 6, -16
	movq	%rsp, %rbp
	.cfi_def_cfa_register 6
	subq	$32, %rsp
	movq	%rdi, -8(%rbp)
	movq	%rsi, -16(%rbp)
	movq	%rdx, -24(%rbp)
	cmpq	$0, -24(%rbp)
	jne	.L21
	movq	-8(%rbp), %rax
	jmp	.L22
.L21:
	movq	-24(%rbp), %rax
	leaq	(%rax,%rax), %rdx
	movq	-16(%rbp), %rcx
	movq	-8(%rbp), %rax
	movq	%rcx, %rsi
	movq	%rax, %rdi
	call	memmove
.L22:
	leave
	.cfi_def_cfa 7, 8
	ret
	.cfi_endproc
.LFE354:
	.size	_ZNSt11char_traitsIDsE4moveEPDsPKDsm, .-_ZNSt11char_traitsIDsE4moveEPDsPKDsm
	.section	.text._ZNSt11char_traitsIDsE4copyEPDsPKDsm,"axG",@progbits,_ZNSt11char_traitsIDsE4copyEPDsPKDsm,comdat
	.weak	_ZNSt11char_traitsIDsE4copyEPDsPKDsm
	.type	_ZNSt11char_traitsIDsE4copyEPDsPKDsm, @function
_ZNSt11char_traitsIDsE4copyEPDsPKDsm:
.LFB355:
	.cfi_startproc
	pushq	%rbp
	.cfi_def_cfa_offset 16
	.cfi_offset 6, -16
	movq	%rsp, %rbp
	.cfi_def_cfa_register 6
	subq	$32, %rsp
	movq	%rdi, -8(%rbp)
	movq	%rsi, -16(%rbp)
	movq	%rdx, -24(%rbp)
	cmpq	$0, -24(%rbp)
	jne	.L24
	movq	-8(%rbp), %rax
	jmp	.L25
.L24:
	movq	-24(%rbp), %rax
	leaq	(%rax,%rax), %rcx
	movq	-8(%rbp), %rdx
	movq	-16(%rbp), %rax
	movq	%rdx, %rdi
	movq	%rcx, %rdx
	movq	%rax, %rsi
	call	memcpy
.L25:
	leave
	.cfi_def_cfa 7, 8
	ret
	.cfi_endproc
.LFE355:
	.size	_ZNSt11char_traitsIDsE4copyEPDsPKDsm, .-_ZNSt11char_traitsIDsE4copyEPDsPKDsm
	.section	.text._ZNSt11char_traitsIDsE6assignEPDsmDs,"axG",@progbits,_ZNSt11char_traitsIDsE6assignEPDsmDs,comdat
	.weak	_ZNSt11char_traitsIDsE6assignEPDsmDs
	.type	_ZNSt11char_traitsIDsE6assignEPDsmDs, @function
_ZNSt11char_traitsIDsE6assignEPDsmDs:
.LFB356:
	.cfi_startproc
	pushq	%rbp
	.cfi_def_cfa_offset 16
	.cfi_offset 6, -16
	movq	%rsp, %rbp
	.cfi_def_cfa_register 6
	subq	$48, %rsp
	movq	%rdi, -24(%rbp)
	movq	%rsi, -32(%rbp)
	movl	%edx, %eax
	movw	%ax, -36(%rbp)
	movq	$0, -8(%rbp)
.L28:
	movq	-8(%rbp), %rax
	cmpq	-32(%rbp), %rax
	jnb	.L27
	movq	-8(%rbp), %rax
	leaq	(%rax,%rax), %rdx
	movq	-24(%rbp), %rax
	addq	%rax, %rdx
	leaq	-36(%rbp), %rax
	movq	%rax, %rsi
	movq	%rdx, %rdi
	call	_ZNSt11char_traitsIDsE6assignERDsRKDs
	addq	$1, -8(%rbp)
	jmp	.L28
.L27:
	movq	-24(%rbp), %rax
	leave
	.cfi_def_cfa 7, 8
	ret
	.cfi_endproc
.LFE356:
	.size	_ZNSt11char_traitsIDsE6assignEPDsmDs, .-_ZNSt11char_traitsIDsE6assignEPDsmDs
	.section	.text._ZnwmPv,"axG",@progbits,_ZnwmPv,comdat
	.weak	_ZnwmPv
	.type	_ZnwmPv, @function
_ZnwmPv:
.LFB429:
	.cfi_startproc
	pushq	%rbp
	.cfi_def_cfa_offset 16
	.cfi_offset 6, -16
	movq	%rsp, %rbp
	.cfi_def_cfa_register 6
	movq	%rdi, -8(%rbp)
	movq	%rsi, -16(%rbp)
	movq	-16(%rbp), %rax
	popq	%rbp
	.cfi_def_cfa 7, 8
	ret
	.cfi_endproc
.LFE429:
	.size	_ZnwmPv, .-_ZnwmPv
	.section	.text._ZdlPvS_,"axG",@progbits,_ZdlPvS_,comdat
	.weak	_ZdlPvS_
	.type	_ZdlPvS_, @function
_ZdlPvS_:
.LFB431:
	.cfi_startproc
	pushq	%rbp
	.cfi_def_cfa_offset 16
	.cfi_offset 6, -16
	movq	%rsp, %rbp
	.cfi_def_cfa_register 6
	movq	%rdi, -8(%rbp)
	movq	%rsi, -16(%rbp)
	nop
	popq	%rbp
	.cfi_def_cfa 7, 8
	ret
	.cfi_endproc
.LFE431:
	.size	_ZdlPvS_, .-_ZdlPvS_
	.section	.text._ZNSt10_Hash_impl4hashEPKvmm,"axG",@progbits,_ZNSt10_Hash_impl4hashEPKvmm,comdat
	.weak	_ZNSt10_Hash_impl4hashEPKvmm
	.type	_ZNSt10_Hash_impl4hashEPKvmm, @function
_ZNSt10_Hash_impl4hashEPKvmm:
.LFB828:
	.cfi_startproc
	pushq	%rbp
	.cfi_def_cfa_offset 16
	.cfi_offset 6, -16
	movq	%rsp, %rbp
	.cfi_def_cfa_register 6
	subq	$32, %rsp
	movq	%rdi, -8(%rbp)
	movq	%rsi, -16(%rbp)
	movq	%rdx, -24(%rbp)
	movq	-24(%rbp), %rdx
	movq	-16(%rbp), %rcx
	movq	-8(%rbp), %rax
	movq	%rcx, %rsi
	movq	%rax, %rdi
	call	_ZSt11_Hash_bytesPKvmm
	leave
	.cfi_def_cfa 7, 8
	ret
	.cfi_endproc
.LFE828:
	.size	_ZNSt10_Hash_impl4hashEPKvmm, .-_ZNSt10_Hash_impl4hashEPKvmm
	.section	.text._ZNKSt4hashINSt7__cxx1112basic_stringIDsSt11char_traitsIDsESaIDsEEEEclERKS5_,"axG",@progbits,_ZNKSt4hashINSt7__cxx1112basic_stringIDsSt11char_traitsIDsESaIDsEEEEclERKS5_,comdat
	.align 2
	.weak	_ZNKSt4hashINSt7__cxx1112basic_stringIDsSt11char_traitsIDsESaIDsEEEEclERKS5_
	.type	_ZNKSt4hashINSt7__cxx1112basic_stringIDsSt11char_traitsIDsESaIDsEEEEclERKS5_, @function
_ZNKSt4hashINSt7__cxx1112basic_stringIDsSt11char_traitsIDsESaIDsEEEEclERKS5_:
.LFB838:
	.cfi_startproc
	.cfi_personality 0x3,__gxx_personality_v0
	.cfi_lsda 0x3,.LLSDA838
	pushq	%rbp
	.cfi_def_cfa_offset 16
	.cfi_offset 6, -16
	movq	%rsp, %rbp
	.cfi_def_cfa_register 6
	pushq	%rbx
	subq	$24, %rsp
	.cfi_offset 3, -24
	movq	%rdi, -24(%rbp)
	movq	%rsi, -32(%rbp)
	movq	-32(%rbp), %rax
	movq	%rax, %rdi
	call	_ZNKSt7__cxx1112basic_stringIDsSt11char_traitsIDsESaIDsEE6lengthEv
	leaq	(%rax,%rax), %rbx
	movq	-32(%rbp), %rax
	movq	%rax, %rdi
	call	_ZNKSt7__cxx1112basic_stringIDsSt11char_traitsIDsESaIDsEE4dataEv
	movl	$3339675911, %edx
	movq	%rbx, %rsi
	movq	%rax, %rdi
	call	_ZNSt10_Hash_impl4hashEPKvmm
	addq	$24, %rsp
	popq	%rbx
	popq	%rbp
	.cfi_def_cfa 7, 8
	ret
	.cfi_endproc
.LFE838:
	.globl	__gxx_personality_v0
	.section	.gcc_except_table._ZNKSt4hashINSt7__cxx1112basic_stringIDsSt11char_traitsIDsESaIDsEEEEclERKS5_,"aG",@progbits,_ZNKSt4hashINSt7__cxx1112basic_stringIDsSt11char_traitsIDsESaIDsEEEEclERKS5_,comdat
.LLSDA838:
	.byte	0xff
	.byte	0xff
	.byte	0x1
	.uleb128 .LLSDACSE838-.LLSDACSB838
.LLSDACSB838:
.LLSDACSE838:
	.section	.text._ZNKSt4hashINSt7__cxx1112basic_stringIDsSt11char_traitsIDsESaIDsEEEEclERKS5_,"axG",@progbits,_ZNKSt4hashINSt7__cxx1112basic_stringIDsSt11char_traitsIDsESaIDsEEEEclERKS5_,comdat
	.size	_ZNKSt4hashINSt7__cxx1112basic_stringIDsSt11char_traitsIDsESaIDsEEEEclERKS5_, .-_ZNKSt4hashINSt7__cxx1112basic_stringIDsSt11char_traitsIDsESaIDsEEEEclERKS5_
	.section	.text._ZNSt6locale5facetC2Em,"axG",@progbits,_ZNSt6locale5facetC5Em,comdat
	.align 2
	.weak	_ZNSt6locale5facetC2Em
	.type	_ZNSt6locale5facetC2Em, @function
_ZNSt6locale5facetC2Em:
.LFB882:
	.cfi_startproc
	pushq	%rbp
	.cfi_def_cfa_offset 16
	.cfi_offset 6, -16
	movq	%rsp, %rbp
	.cfi_def_cfa_register 6
	movq	%rdi, -8(%rbp)
	movq	%rsi, -16(%rbp)
	movl	$_ZTVNSt6locale5facetE+16, %edx
	movq	-8(%rbp), %rax
	movq	%rdx, (%rax)
	cmpq	$0, -16(%rbp)
	je	.L38
	movl	$1, %edx
	jmp	.L39
.L38:
	movl	$0, %edx
.L39:
	movq	-8(%rbp), %rax
	movl	%edx, 8(%rax)
	nop
	popq	%rbp
	.cfi_def_cfa 7, 8
	ret
	.cfi_endproc
.LFE882:
	.size	_ZNSt6locale5facetC2Em, .-_ZNSt6locale5facetC2Em
	.weak	_ZNSt6locale5facetC1Em
	.set	_ZNSt6locale5facetC1Em,_ZNSt6locale5facetC2Em
	.local	_ZStL8__ioinit
	.comm	_ZStL8__ioinit,1,1
	.section	.text._ZNSt7codecvtIDsc11__mbstate_tEC2Em,"axG",@progbits,_ZNSt7codecvtIDsc11__mbstate_tEC5Em,comdat
	.align 2
	.weak	_ZNSt7codecvtIDsc11__mbstate_tEC2Em
	.type	_ZNSt7codecvtIDsc11__mbstate_tEC2Em, @function
_ZNSt7codecvtIDsc11__mbstate_tEC2Em:
.LFB1395:
	.cfi_startproc
	pushq	%rbp
	.cfi_def_cfa_offset 16
	.cfi_offset 6, -16
	movq	%rsp, %rbp
	.cfi_def_cfa_register 6
	subq	$16, %rsp
	movq	%rdi, -8(%rbp)
	movq	%rsi, -16(%rbp)
	movq	-8(%rbp), %rax
	movq	-16(%rbp), %rdx
	movq	%rdx, %rsi
	movq	%rax, %rdi
	call	_ZNSt23__codecvt_abstract_baseIDsc11__mbstate_tEC2Em
	movl	$_ZTVSt7codecvtIDsc11__mbstate_tE+16, %edx
	movq	-8(%rbp), %rax
	movq	%rdx, (%rax)
	nop
	leave
	.cfi_def_cfa 7, 8
	ret
	.cfi_endproc
.LFE1395:
	.size	_ZNSt7codecvtIDsc11__mbstate_tEC2Em, .-_ZNSt7codecvtIDsc11__mbstate_tEC2Em
	.weak	_ZNSt7codecvtIDsc11__mbstate_tEC1Em
	.set	_ZNSt7codecvtIDsc11__mbstate_tEC1Em,_ZNSt7codecvtIDsc11__mbstate_tEC2Em
	.section	.text._ZNSt25__codecvt_utf8_utf16_baseIDsEC2EmSt12codecvt_modem,"axG",@progbits,_ZNSt25__codecvt_utf8_utf16_baseIDsEC5EmSt12codecvt_modem,comdat
	.align 2
	.weak	_ZNSt25__codecvt_utf8_utf16_baseIDsEC2EmSt12codecvt_modem
	.type	_ZNSt25__codecvt_utf8_utf16_baseIDsEC2EmSt12codecvt_modem, @function
_ZNSt25__codecvt_utf8_utf16_baseIDsEC2EmSt12codecvt_modem:
.LFB1562:
	.cfi_startproc
	pushq	%rbp
	.cfi_def_cfa_offset 16
	.cfi_offset 6, -16
	movq	%rsp, %rbp
	.cfi_def_cfa_register 6
	subq	$32, %rsp
	movq	%rdi, -8(%rbp)
	movq	%rsi, -16(%rbp)
	movl	%edx, -20(%rbp)
	movq	%rcx, -32(%rbp)
	movq	-8(%rbp), %rax
	movq	-32(%rbp), %rdx
	movq	%rdx, %rsi
	movq	%rax, %rdi
	call	_ZNSt7codecvtIDsc11__mbstate_tEC2Em
	movl	$_ZTVSt25__codecvt_utf8_utf16_baseIDsE+16, %edx
	movq	-8(%rbp), %rax
	movq	%rdx, (%rax)
	movq	-8(%rbp), %rax
	movq	-16(%rbp), %rdx
	movq	%rdx, 16(%rax)
	movq	-8(%rbp), %rax
	movl	-20(%rbp), %edx
	movl	%edx, 24(%rax)
	nop
	leave
	.cfi_def_cfa 7, 8
	ret
	.cfi_endproc
.LFE1562:
	.size	_ZNSt25__codecvt_utf8_utf16_baseIDsEC2EmSt12codecvt_modem, .-_ZNSt25__codecvt_utf8_utf16_baseIDsEC2EmSt12codecvt_modem
	.weak	_ZNSt25__codecvt_utf8_utf16_baseIDsEC1EmSt12codecvt_modem
	.set	_ZNSt25__codecvt_utf8_utf16_baseIDsEC1EmSt12codecvt_modem,_ZNSt25__codecvt_utf8_utf16_baseIDsEC2EmSt12codecvt_modem
	.section	.rodata
	.type	_ZStL13allocator_arg, @object
	.size	_ZStL13allocator_arg, 1
_ZStL13allocator_arg:
	.zero	1
	.type	_ZStL6ignore, @object
	.size	_ZStL6ignore, 1
_ZStL6ignore:
	.zero	1
	.section	.text._ZSt16__deque_buf_sizem,"axG",@progbits,_ZSt16__deque_buf_sizem,comdat
	.weak	_ZSt16__deque_buf_sizem
	.type	_ZSt16__deque_buf_sizem, @function
_ZSt16__deque_buf_sizem:
.LFB2299:
	.cfi_startproc
	pushq	%rbp
	.cfi_def_cfa_offset 16
	.cfi_offset 6, -16
	movq	%rsp, %rbp
	.cfi_def_cfa_register 6
	movq	%rdi, -8(%rbp)
	cmpq	$511, -8(%rbp)
	ja	.L43
	movl	$512, %eax
	movl	$0, %edx
	divq	-8(%rbp)
	jmp	.L45
.L43:
	movl	$1, %eax
.L45:
	popq	%rbp
	.cfi_def_cfa 7, 8
	ret
	.cfi_endproc
.LFE2299:
	.size	_ZSt16__deque_buf_sizem, .-_ZSt16__deque_buf_sizem
	.section	.text._ZNSt8__detail15_Hash_node_baseC2Ev,"axG",@progbits,_ZNSt8__detail15_Hash_node_baseC5Ev,comdat
	.align 2
	.weak	_ZNSt8__detail15_Hash_node_baseC2Ev
	.type	_ZNSt8__detail15_Hash_node_baseC2Ev, @function
_ZNSt8__detail15_Hash_node_baseC2Ev:
.LFB2809:
	.cfi_startproc
	pushq	%rbp
	.cfi_def_cfa_offset 16
	.cfi_offset 6, -16
	movq	%rsp, %rbp
	.cfi_def_cfa_register 6
	movq	%rdi, -8(%rbp)
	movq	-8(%rbp), %rax
	movq	$0, (%rax)
	nop
	popq	%rbp
	.cfi_def_cfa 7, 8
	ret
	.cfi_endproc
.LFE2809:
	.size	_ZNSt8__detail15_Hash_node_baseC2Ev, .-_ZNSt8__detail15_Hash_node_baseC2Ev
	.weak	_ZNSt8__detail15_Hash_node_baseC1Ev
	.set	_ZNSt8__detail15_Hash_node_baseC1Ev,_ZNSt8__detail15_Hash_node_baseC2Ev
	.section	.text._ZNKSt8__detail18_Mod_range_hashingclEmm,"axG",@progbits,_ZNKSt8__detail18_Mod_range_hashingclEmm,comdat
	.align 2
	.weak	_ZNKSt8__detail18_Mod_range_hashingclEmm
	.type	_ZNKSt8__detail18_Mod_range_hashingclEmm, @function
_ZNKSt8__detail18_Mod_range_hashingclEmm:
.LFB2837:
	.cfi_startproc
	pushq	%rbp
	.cfi_def_cfa_offset 16
	.cfi_offset 6, -16
	movq	%rsp, %rbp
	.cfi_def_cfa_register 6
	movq	%rdi, -8(%rbp)
	movq	%rsi, -16(%rbp)
	movq	%rdx, -24(%rbp)
	movq	-16(%rbp), %rax
	movl	$0, %edx
	divq	-24(%rbp)
	movq	%rdx, %rax
	popq	%rbp
	.cfi_def_cfa 7, 8
	ret
	.cfi_endproc
.LFE2837:
	.size	_ZNKSt8__detail18_Mod_range_hashingclEmm, .-_ZNKSt8__detail18_Mod_range_hashingclEmm
	.section	.text._ZNSt8__detail20_Prime_rehash_policyC2Ef,"axG",@progbits,_ZNSt8__detail20_Prime_rehash_policyC5Ef,comdat
	.align 2
	.weak	_ZNSt8__detail20_Prime_rehash_policyC2Ef
	.type	_ZNSt8__detail20_Prime_rehash_policyC2Ef, @function
_ZNSt8__detail20_Prime_rehash_policyC2Ef:
.LFB2839:
	.cfi_startproc
	pushq	%rbp
	.cfi_def_cfa_offset 16
	.cfi_offset 6, -16
	movq	%rsp, %rbp
	.cfi_def_cfa_register 6
	movq	%rdi, -8(%rbp)
	movss	%xmm0, -12(%rbp)
	movq	-8(%rbp), %rax
	movss	-12(%rbp), %xmm0
	movss	%xmm0, (%rax)
	movq	-8(%rbp), %rax
	movq	$0, 8(%rax)
	nop
	popq	%rbp
	.cfi_def_cfa 7, 8
	ret
	.cfi_endproc
.LFE2839:
	.size	_ZNSt8__detail20_Prime_rehash_policyC2Ef, .-_ZNSt8__detail20_Prime_rehash_policyC2Ef
	.weak	_ZNSt8__detail20_Prime_rehash_policyC1Ef
	.set	_ZNSt8__detail20_Prime_rehash_policyC1Ef,_ZNSt8__detail20_Prime_rehash_policyC2Ef
	.section	.text._ZNKSt8__detail20_Prime_rehash_policy8_M_stateEv,"axG",@progbits,_ZNKSt8__detail20_Prime_rehash_policy8_M_stateEv,comdat
	.align 2
	.weak	_ZNKSt8__detail20_Prime_rehash_policy8_M_stateEv
	.type	_ZNKSt8__detail20_Prime_rehash_policy8_M_stateEv, @function
_ZNKSt8__detail20_Prime_rehash_policy8_M_stateEv:
.LFB2843:
	.cfi_startproc
	pushq	%rbp
	.cfi_def_cfa_offset 16
	.cfi_offset 6, -16
	movq	%rsp, %rbp
	.cfi_def_cfa_register 6
	movq	%rdi, -8(%rbp)
	movq	-8(%rbp), %rax
	movq	8(%rax), %rax
	popq	%rbp
	.cfi_def_cfa 7, 8
	ret
	.cfi_endproc
.LFE2843:
	.size	_ZNKSt8__detail20_Prime_rehash_policy8_M_stateEv, .-_ZNKSt8__detail20_Prime_rehash_policy8_M_stateEv
	.section	.text._ZNSt8__detail20_Prime_rehash_policy8_M_resetEm,"axG",@progbits,_ZNSt8__detail20_Prime_rehash_policy8_M_resetEm,comdat
	.align 2
	.weak	_ZNSt8__detail20_Prime_rehash_policy8_M_resetEm
	.type	_ZNSt8__detail20_Prime_rehash_policy8_M_resetEm, @function
_ZNSt8__detail20_Prime_rehash_policy8_M_resetEm:
.LFB2845:
	.cfi_startproc
	pushq	%rbp
	.cfi_def_cfa_offset 16
	.cfi_offset 6, -16
	movq	%rsp, %rbp
	.cfi_def_cfa_register 6
	movq	%rdi, -8(%rbp)
	movq	%rsi, -16(%rbp)
	movq	-8(%rbp), %rax
	movq	-16(%rbp), %rdx
	movq	%rdx, 8(%rax)
	nop
	popq	%rbp
	.cfi_def_cfa 7, 8
	ret
	.cfi_endproc
.LFE2845:
	.size	_ZNSt8__detail20_Prime_rehash_policy8_M_resetEm, .-_ZNSt8__detail20_Prime_rehash_policy8_M_resetEm
	.section	.text._ZNSt7__cxx1115wstring_convertISt18codecvt_utf8_utf16IDsLm1114111ELSt12codecvt_mode0EEDsSaIDsESaIcEED2Ev,"axG",@progbits,_ZNSt7__cxx1115wstring_convertISt18codecvt_utf8_utf16IDsLm1114111ELSt12codecvt_mode0EEDsSaIDsESaIcEED5Ev,comdat
	.align 2
	.weak	_ZNSt7__cxx1115wstring_convertISt18codecvt_utf8_utf16IDsLm1114111ELSt12codecvt_mode0EEDsSaIDsESaIcEED2Ev
	.type	_ZNSt7__cxx1115wstring_convertISt18codecvt_utf8_utf16IDsLm1114111ELSt12codecvt_mode0EEDsSaIDsESaIcEED2Ev, @function
_ZNSt7__cxx1115wstring_convertISt18codecvt_utf8_utf16IDsLm1114111ELSt12codecvt_mode0EEDsSaIDsESaIcEED2Ev:
.LFB8085:
	.cfi_startproc
	pushq	%rbp
	.cfi_def_cfa_offset 16
	.cfi_offset 6, -16
	movq	%rsp, %rbp
	.cfi_def_cfa_register 6
	subq	$16, %rsp
	movq	%rdi, -8(%rbp)
	movq	-8(%rbp), %rax
	addq	$40, %rax
	movq	%rax, %rdi
	call	_ZNSt7__cxx1112basic_stringIDsSt11char_traitsIDsESaIDsEED1Ev
	movq	-8(%rbp), %rax
	addq	$8, %rax
	movq	%rax, %rdi
	call	_ZNSt7__cxx1112basic_stringIcSt11char_traitsIcESaIcEED1Ev
	movq	-8(%rbp), %rax
	movq	%rax, %rdi
	call	_ZNSt10unique_ptrISt18codecvt_utf8_utf16IDsLm1114111ELSt12codecvt_mode0EESt14default_deleteIS2_EED1Ev
	nop
	leave
	.cfi_def_cfa 7, 8
	ret
	.cfi_endproc
.LFE8085:
	.size	_ZNSt7__cxx1115wstring_convertISt18codecvt_utf8_utf16IDsLm1114111ELSt12codecvt_mode0EEDsSaIDsESaIcEED2Ev, .-_ZNSt7__cxx1115wstring_convertISt18codecvt_utf8_utf16IDsLm1114111ELSt12codecvt_mode0EEDsSaIDsESaIcEED2Ev
	.weak	_ZNSt7__cxx1115wstring_convertISt18codecvt_utf8_utf16IDsLm1114111ELSt12codecvt_mode0EEDsSaIDsESaIcEED1Ev
	.set	_ZNSt7__cxx1115wstring_convertISt18codecvt_utf8_utf16IDsLm1114111ELSt12codecvt_mode0EEDsSaIDsESaIcEED1Ev,_ZNSt7__cxx1115wstring_convertISt18codecvt_utf8_utf16IDsLm1114111ELSt12codecvt_mode0EEDsSaIDsESaIcEED2Ev
	.text
	.globl	_Z8to_bytesNSt7__cxx1112basic_stringIDsSt11char_traitsIDsESaIDsEEE
	.type	_Z8to_bytesNSt7__cxx1112basic_stringIDsSt11char_traitsIDsESaIDsEEE, @function
_Z8to_bytesNSt7__cxx1112basic_stringIDsSt11char_traitsIDsESaIDsEEE:
.LFB8083:
	.cfi_startproc
	.cfi_personality 0x3,__gxx_personality_v0
	.cfi_lsda 0x3,.LLSDA8083
	pushq	%rbp
	.cfi_def_cfa_offset 16
	.cfi_offset 6, -16
	movq	%rsp, %rbp
	.cfi_def_cfa_register 6
	pushq	%r12
	pushq	%rbx
	addq	$-128, %rsp
	.cfi_offset 12, -24
	.cfi_offset 3, -32
	movq	%rdi, -136(%rbp)
	movq	%rsi, -144(%rbp)
	movq	%fs:40, %rax
	movq	%rax, -24(%rbp)
	xorl	%eax, %eax
	movl	$32, %edi
.LEHB0:
	call	_Znwm
.LEHE0:
	movq	%rax, %rbx
	movl	$0, %esi
	movq	%rbx, %rdi
.LEHB1:
	call	_ZNSt18codecvt_utf8_utf16IDsLm1114111ELSt12codecvt_mode0EEC1Em
.LEHE1:
	leaq	-128(%rbp), %rax
	movq	%rbx, %rsi
	movq	%rax, %rdi
.LEHB2:
	call	_ZNSt7__cxx1115wstring_convertISt18codecvt_utf8_utf16IDsLm1114111ELSt12codecvt_mode0EEDsSaIDsESaIcEEC1EPS3_
.LEHE2:
	movq	-136(%rbp), %rax
	movq	-144(%rbp), %rdx
	leaq	-128(%rbp), %rcx
	movq	%rcx, %rsi
	movq	%rax, %rdi
.LEHB3:
	call	_ZNSt7__cxx1115wstring_convertISt18codecvt_utf8_utf16IDsLm1114111ELSt12codecvt_mode0EEDsSaIDsESaIcEE8to_bytesERKNS_12basic_stringIDsSt11char_traitsIDsES4_EE
.LEHE3:
	nop
	leaq	-128(%rbp), %rax
	movq	%rax, %rdi
	call	_ZNSt7__cxx1115wstring_convertISt18codecvt_utf8_utf16IDsLm1114111ELSt12codecvt_mode0EEDsSaIDsESaIcEED1Ev
	nop
	movq	-136(%rbp), %rax
	movq	-24(%rbp), %rcx
	xorq	%fs:40, %rcx
	je	.L58
	jmp	.L61
.L59:
	movq	%rax, %r12
	movq	%rbx, %rdi
	call	_ZdlPv
	movq	%r12, %rax
	movq	%rax, %rdi
.LEHB4:
	call	_Unwind_Resume
.L60:
	movq	%rax, %rbx
	leaq	-128(%rbp), %rax
	movq	%rax, %rdi
	call	_ZNSt7__cxx1115wstring_convertISt18codecvt_utf8_utf16IDsLm1114111ELSt12codecvt_mode0EEDsSaIDsESaIcEED1Ev
	movq	%rbx, %rax
	movq	%rax, %rdi
	call	_Unwind_Resume
.LEHE4:
.L61:
	call	__stack_chk_fail
.L58:
	subq	$-128, %rsp
	popq	%rbx
	popq	%r12
	popq	%rbp
	.cfi_def_cfa 7, 8
	ret
	.cfi_endproc
.LFE8083:
	.section	.gcc_except_table,"a",@progbits
.LLSDA8083:
	.byte	0xff
	.byte	0xff
	.byte	0x1
	.uleb128 .LLSDACSE8083-.LLSDACSB8083
.LLSDACSB8083:
	.uleb128 .LEHB0-.LFB8083
	.uleb128 .LEHE0-.LEHB0
	.uleb128 0
	.uleb128 0
	.uleb128 .LEHB1-.LFB8083
	.uleb128 .LEHE1-.LEHB1
	.uleb128 .L59-.LFB8083
	.uleb128 0
	.uleb128 .LEHB2-.LFB8083
	.uleb128 .LEHE2-.LEHB2
	.uleb128 0
	.uleb128 0
	.uleb128 .LEHB3-.LFB8083
	.uleb128 .LEHE3-.LEHB3
	.uleb128 .L60-.LFB8083
	.uleb128 0
	.uleb128 .LEHB4-.LFB8083
	.uleb128 .LEHE4-.LEHB4
	.uleb128 0
	.uleb128 0
.LLSDACSE8083:
	.text
	.size	_Z8to_bytesNSt7__cxx1112basic_stringIDsSt11char_traitsIDsESaIDsEEE, .-_Z8to_bytesNSt7__cxx1112basic_stringIDsSt11char_traitsIDsESaIDsEEE
	.globl	_Z10from_bytesNSt7__cxx1112basic_stringIcSt11char_traitsIcESaIcEEE
	.type	_Z10from_bytesNSt7__cxx1112basic_stringIcSt11char_traitsIcESaIcEEE, @function
_Z10from_bytesNSt7__cxx1112basic_stringIcSt11char_traitsIcESaIcEEE:
.LFB8087:
	.cfi_startproc
	.cfi_personality 0x3,__gxx_personality_v0
	.cfi_lsda 0x3,.LLSDA8087
	pushq	%rbp
	.cfi_def_cfa_offset 16
	.cfi_offset 6, -16
	movq	%rsp, %rbp
	.cfi_def_cfa_register 6
	pushq	%r12
	pushq	%rbx
	addq	$-128, %rsp
	.cfi_offset 12, -24
	.cfi_offset 3, -32
	movq	%rdi, -136(%rbp)
	movq	%rsi, -144(%rbp)
	movq	%fs:40, %rax
	movq	%rax, -24(%rbp)
	xorl	%eax, %eax
	movl	$32, %edi
.LEHB5:
	call	_Znwm
.LEHE5:
	movq	%rax, %rbx
	movl	$0, %esi
	movq	%rbx, %rdi
.LEHB6:
	call	_ZNSt18codecvt_utf8_utf16IDsLm1114111ELSt12codecvt_mode0EEC1Em
.LEHE6:
	leaq	-128(%rbp), %rax
	movq	%rbx, %rsi
	movq	%rax, %rdi
.LEHB7:
	call	_ZNSt7__cxx1115wstring_convertISt18codecvt_utf8_utf16IDsLm1114111ELSt12codecvt_mode0EEDsSaIDsESaIcEEC1EPS3_
.LEHE7:
	movq	-136(%rbp), %rax
	movq	-144(%rbp), %rdx
	leaq	-128(%rbp), %rcx
	movq	%rcx, %rsi
	movq	%rax, %rdi
.LEHB8:
	call	_ZNSt7__cxx1115wstring_convertISt18codecvt_utf8_utf16IDsLm1114111ELSt12codecvt_mode0EEDsSaIDsESaIcEE10from_bytesERKNS_12basic_stringIcSt11char_traitsIcES5_EE
.LEHE8:
	nop
	leaq	-128(%rbp), %rax
	movq	%rax, %rdi
	call	_ZNSt7__cxx1115wstring_convertISt18codecvt_utf8_utf16IDsLm1114111ELSt12codecvt_mode0EEDsSaIDsESaIcEED1Ev
	nop
	movq	-136(%rbp), %rax
	movq	-24(%rbp), %rcx
	xorq	%fs:40, %rcx
	je	.L66
	jmp	.L69
.L67:
	movq	%rax, %r12
	movq	%rbx, %rdi
	call	_ZdlPv
	movq	%r12, %rax
	movq	%rax, %rdi
.LEHB9:
	call	_Unwind_Resume
.L68:
	movq	%rax, %rbx
	leaq	-128(%rbp), %rax
	movq	%rax, %rdi
	call	_ZNSt7__cxx1115wstring_convertISt18codecvt_utf8_utf16IDsLm1114111ELSt12codecvt_mode0EEDsSaIDsESaIcEED1Ev
	movq	%rbx, %rax
	movq	%rax, %rdi
	call	_Unwind_Resume
.LEHE9:
.L69:
	call	__stack_chk_fail
.L66:
	subq	$-128, %rsp
	popq	%rbx
	popq	%r12
	popq	%rbp
	.cfi_def_cfa 7, 8
	ret
	.cfi_endproc
.LFE8087:
	.section	.gcc_except_table
.LLSDA8087:
	.byte	0xff
	.byte	0xff
	.byte	0x1
	.uleb128 .LLSDACSE8087-.LLSDACSB8087
.LLSDACSB8087:
	.uleb128 .LEHB5-.LFB8087
	.uleb128 .LEHE5-.LEHB5
	.uleb128 0
	.uleb128 0
	.uleb128 .LEHB6-.LFB8087
	.uleb128 .LEHE6-.LEHB6
	.uleb128 .L67-.LFB8087
	.uleb128 0
	.uleb128 .LEHB7-.LFB8087
	.uleb128 .LEHE7-.LEHB7
	.uleb128 0
	.uleb128 0
	.uleb128 .LEHB8-.LFB8087
	.uleb128 .LEHE8-.LEHB8
	.uleb128 .L68-.LFB8087
	.uleb128 0
	.uleb128 .LEHB9-.LFB8087
	.uleb128 .LEHE9-.LEHB9
	.uleb128 0
	.uleb128 0
.LLSDACSE8087:
	.text
	.size	_Z10from_bytesNSt7__cxx1112basic_stringIcSt11char_traitsIcESaIcEEE, .-_Z10from_bytesNSt7__cxx1112basic_stringIcSt11char_traitsIcESaIcEEE
	.globl	_Z11removeBlankRSt6vectorINSt7__cxx1112basic_stringIDsSt11char_traitsIDsESaIDsEEESaIS5_EE
	.type	_Z11removeBlankRSt6vectorINSt7__cxx1112basic_stringIDsSt11char_traitsIDsESaIDsEEESaIS5_EE, @function
_Z11removeBlankRSt6vectorINSt7__cxx1112basic_stringIDsSt11char_traitsIDsESaIDsEEESaIS5_EE:
.LFB8088:
	.cfi_startproc
	.cfi_personality 0x3,__gxx_personality_v0
	.cfi_lsda 0x3,.LLSDA8088
	pushq	%rbp
	.cfi_def_cfa_offset 16
	.cfi_offset 6, -16
	movq	%rsp, %rbp
	.cfi_def_cfa_register 6
	pushq	%rbx
	subq	$200, %rsp
	.cfi_offset 3, -24
	movq	%rdi, -200(%rbp)
	movq	%rsi, -208(%rbp)
	movq	%fs:40, %rax
	movq	%rax, -24(%rbp)
	xorl	%eax, %eax
	movq	-200(%rbp), %rax
	movq	%rax, %rdi
	call	_ZNSt6vectorINSt7__cxx1112basic_stringIDsSt11char_traitsIDsESaIDsEEESaIS5_EEC1Ev
	movq	-208(%rbp), %rax
	movq	%rax, -112(%rbp)
	movq	-112(%rbp), %rax
	movq	%rax, %rdi
	call	_ZNSt6vectorINSt7__cxx1112basic_stringIDsSt11char_traitsIDsESaIDsEEESaIS5_EE5beginEv
	movq	%rax, -176(%rbp)
	movq	-112(%rbp), %rax
	movq	%rax, %rdi
	call	_ZNSt6vectorINSt7__cxx1112basic_stringIDsSt11char_traitsIDsESaIDsEEESaIS5_EE3endEv
	movq	%rax, -160(%rbp)
.L76:
	leaq	-160(%rbp), %rdx
	leaq	-176(%rbp), %rax
	movq	%rdx, %rsi
	movq	%rax, %rdi
	call	_ZN9__gnu_cxxneIPNSt7__cxx1112basic_stringIDsSt11char_traitsIDsESaIDsEEESt6vectorIS6_SaIS6_EEEEbRKNS_17__normal_iteratorIT_T0_EESG_
	testb	%al, %al
	je	.L83
	leaq	-176(%rbp), %rax
	movq	%rax, %rdi
	call	_ZNK9__gnu_cxx17__normal_iteratorIPNSt7__cxx1112basic_stringIDsSt11char_traitsIDsESaIDsEEESt6vectorIS6_SaIS6_EEEdeEv
	movq	%rax, %rdx
	leaq	-96(%rbp), %rax
	movq	%rdx, %rsi
	movq	%rax, %rdi
.LEHB10:
	call	_ZNSt7__cxx1112basic_stringIDsSt11char_traitsIDsESaIDsEEC1ERKS4_
.LEHE10:
	leaq	-64(%rbp), %rax
	movq	%rax, %rdi
	call	_ZNSt7__cxx1112basic_stringIDsSt11char_traitsIDsESaIDsEEC1Ev
	movb	$1, -179(%rbp)
	leaq	-96(%rbp), %rax
	movq	%rax, -104(%rbp)
	movq	-104(%rbp), %rax
	movq	%rax, %rdi
	call	_ZNSt7__cxx1112basic_stringIDsSt11char_traitsIDsESaIDsEE5beginEv
	movq	%rax, -144(%rbp)
	movq	-104(%rbp), %rax
	movq	%rax, %rdi
	call	_ZNSt7__cxx1112basic_stringIDsSt11char_traitsIDsESaIDsEE3endEv
	movq	%rax, -128(%rbp)
.L75:
	leaq	-128(%rbp), %rdx
	leaq	-144(%rbp), %rax
	movq	%rdx, %rsi
	movq	%rax, %rdi
	call	_ZN9__gnu_cxxneIPDsNSt7__cxx1112basic_stringIDsSt11char_traitsIDsESaIDsEEEEEbRKNS_17__normal_iteratorIT_T0_EESD_
	testb	%al, %al
	je	.L72
	leaq	-144(%rbp), %rax
	movq	%rax, %rdi
	call	_ZNK9__gnu_cxx17__normal_iteratorIPDsNSt7__cxx1112basic_stringIDsSt11char_traitsIDsESaIDsEEEEdeEv
	movzwl	(%rax), %eax
	movw	%ax, -178(%rbp)
	cmpb	$0, -179(%rbp)
	je	.L73
	cmpw	$32, -178(%rbp)
	je	.L74
	cmpw	$9, -178(%rbp)
	je	.L74
	movb	$0, -179(%rbp)
	movzwl	-178(%rbp), %edx
	leaq	-64(%rbp), %rax
	movl	%edx, %esi
	movq	%rax, %rdi
.LEHB11:
	call	_ZNSt7__cxx1112basic_stringIDsSt11char_traitsIDsESaIDsEEpLEDs
	jmp	.L74
.L73:
	movzwl	-178(%rbp), %edx
	leaq	-64(%rbp), %rax
	movl	%edx, %esi
	movq	%rax, %rdi
	call	_ZNSt7__cxx1112basic_stringIDsSt11char_traitsIDsESaIDsEEpLEDs
.L74:
	leaq	-144(%rbp), %rax
	movq	%rax, %rdi
	call	_ZN9__gnu_cxx17__normal_iteratorIPDsNSt7__cxx1112basic_stringIDsSt11char_traitsIDsESaIDsEEEEppEv
	jmp	.L75
.L72:
	leaq	-64(%rbp), %rdx
	movq	-200(%rbp), %rax
	movq	%rdx, %rsi
	movq	%rax, %rdi
	call	_ZNSt6vectorINSt7__cxx1112basic_stringIDsSt11char_traitsIDsESaIDsEEESaIS5_EE9push_backERKS5_
.LEHE11:
	leaq	-64(%rbp), %rax
	movq	%rax, %rdi
	call	_ZNSt7__cxx1112basic_stringIDsSt11char_traitsIDsESaIDsEED1Ev
	leaq	-96(%rbp), %rax
	movq	%rax, %rdi
	call	_ZNSt7__cxx1112basic_stringIDsSt11char_traitsIDsESaIDsEED1Ev
	leaq	-176(%rbp), %rax
	movq	%rax, %rdi
	call	_ZN9__gnu_cxx17__normal_iteratorIPNSt7__cxx1112basic_stringIDsSt11char_traitsIDsESaIDsEEESt6vectorIS6_SaIS6_EEEppEv
	jmp	.L76
.L82:
	movq	%rax, %rbx
	leaq	-64(%rbp), %rax
	movq	%rax, %rdi
	call	_ZNSt7__cxx1112basic_stringIDsSt11char_traitsIDsESaIDsEED1Ev
	leaq	-96(%rbp), %rax
	movq	%rax, %rdi
	call	_ZNSt7__cxx1112basic_stringIDsSt11char_traitsIDsESaIDsEED1Ev
	movq	%rbx, %rax
	jmp	.L79
.L81:
.L79:
	movq	%rax, %rbx
	movq	-200(%rbp), %rax
	movq	%rax, %rdi
	call	_ZNSt6vectorINSt7__cxx1112basic_stringIDsSt11char_traitsIDsESaIDsEEESaIS5_EED1Ev
	movq	%rbx, %rax
	movq	%rax, %rdi
.LEHB12:
	call	_Unwind_Resume
.LEHE12:
.L83:
	nop
	movq	-200(%rbp), %rax
	movq	-24(%rbp), %rcx
	xorq	%fs:40, %rcx
	je	.L80
	call	__stack_chk_fail
.L80:
	addq	$200, %rsp
	popq	%rbx
	popq	%rbp
	.cfi_def_cfa 7, 8
	ret
	.cfi_endproc
.LFE8088:
	.section	.gcc_except_table
.LLSDA8088:
	.byte	0xff
	.byte	0xff
	.byte	0x1
	.uleb128 .LLSDACSE8088-.LLSDACSB8088
.LLSDACSB8088:
	.uleb128 .LEHB10-.LFB8088
	.uleb128 .LEHE10-.LEHB10
	.uleb128 .L81-.LFB8088
	.uleb128 0
	.uleb128 .LEHB11-.LFB8088
	.uleb128 .LEHE11-.LEHB11
	.uleb128 .L82-.LFB8088
	.uleb128 0
	.uleb128 .LEHB12-.LFB8088
	.uleb128 .LEHE12-.LEHB12
	.uleb128 0
	.uleb128 0
.LLSDACSE8088:
	.text
	.size	_Z11removeBlankRSt6vectorINSt7__cxx1112basic_stringIDsSt11char_traitsIDsESaIDsEEESaIS5_EE, .-_Z11removeBlankRSt6vectorINSt7__cxx1112basic_stringIDsSt11char_traitsIDsESaIDsEEESaIS5_EE
	.globl	_Z13getIsSharpRowRSt6vectorINSt7__cxx1112basic_stringIDsSt11char_traitsIDsESaIDsEEESaIS5_EE
	.type	_Z13getIsSharpRowRSt6vectorINSt7__cxx1112basic_stringIDsSt11char_traitsIDsESaIDsEEESaIS5_EE, @function
_Z13getIsSharpRowRSt6vectorINSt7__cxx1112basic_stringIDsSt11char_traitsIDsESaIDsEEESaIS5_EE:
.LFB8089:
	.cfi_startproc
	.cfi_personality 0x3,__gxx_personality_v0
	.cfi_lsda 0x3,.LLSDA8089
	pushq	%rbp
	.cfi_def_cfa_offset 16
	.cfi_offset 6, -16
	movq	%rsp, %rbp
	.cfi_def_cfa_register 6
	pushq	%rbx
	subq	$200, %rsp
	.cfi_offset 3, -24
	movq	%rdi, -200(%rbp)
	movq	%rsi, -208(%rbp)
	movq	%fs:40, %rax
	movq	%rax, -24(%rbp)
	xorl	%eax, %eax
	movq	-200(%rbp), %rax
	movq	%rax, %rdi
	call	_ZNSt6vectorINSt7__cxx1112basic_stringIDsSt11char_traitsIDsESaIDsEEESaIS5_EEC1Ev
	movq	-208(%rbp), %rax
	movq	%rax, -112(%rbp)
	movq	-112(%rbp), %rax
	movq	%rax, %rdi
	call	_ZNSt6vectorINSt7__cxx1112basic_stringIDsSt11char_traitsIDsESaIDsEEESaIS5_EE5beginEv
	movq	%rax, -176(%rbp)
	movq	-112(%rbp), %rax
	movq	%rax, %rdi
	call	_ZNSt6vectorINSt7__cxx1112basic_stringIDsSt11char_traitsIDsESaIDsEEESaIS5_EE3endEv
	movq	%rax, -160(%rbp)
.L89:
	leaq	-160(%rbp), %rdx
	leaq	-176(%rbp), %rax
	movq	%rdx, %rsi
	movq	%rax, %rdi
	call	_ZN9__gnu_cxxneIPNSt7__cxx1112basic_stringIDsSt11char_traitsIDsESaIDsEEESt6vectorIS6_SaIS6_EEEEbRKNS_17__normal_iteratorIT_T0_EESG_
	testb	%al, %al
	je	.L96
	leaq	-176(%rbp), %rax
	movq	%rax, %rdi
	call	_ZNK9__gnu_cxx17__normal_iteratorIPNSt7__cxx1112basic_stringIDsSt11char_traitsIDsESaIDsEEESt6vectorIS6_SaIS6_EEEdeEv
	movq	%rax, %rdx
	leaq	-96(%rbp), %rax
	movq	%rdx, %rsi
	movq	%rax, %rdi
.LEHB13:
	call	_ZNSt7__cxx1112basic_stringIDsSt11char_traitsIDsESaIDsEEC1ERKS4_
.LEHE13:
	leaq	-64(%rbp), %rax
	movq	%rax, %rdi
	call	_ZNSt7__cxx1112basic_stringIDsSt11char_traitsIDsESaIDsEEC1Ev
	leaq	-96(%rbp), %rax
	movl	$0, %esi
	movq	%rax, %rdi
.LEHB14:
	call	_ZNSt7__cxx1112basic_stringIDsSt11char_traitsIDsESaIDsEEixEm
	movzwl	(%rax), %eax
	cmpw	$35, %ax
	sete	%al
	testb	%al, %al
	je	.L86
	leaq	-96(%rbp), %rax
	movq	%rax, -104(%rbp)
	movq	-104(%rbp), %rax
	movq	%rax, %rdi
	call	_ZNSt7__cxx1112basic_stringIDsSt11char_traitsIDsESaIDsEE5beginEv
	movq	%rax, -144(%rbp)
	movq	-104(%rbp), %rax
	movq	%rax, %rdi
	call	_ZNSt7__cxx1112basic_stringIDsSt11char_traitsIDsESaIDsEE3endEv
	movq	%rax, -128(%rbp)
.L88:
	leaq	-128(%rbp), %rdx
	leaq	-144(%rbp), %rax
	movq	%rdx, %rsi
	movq	%rax, %rdi
	call	_ZN9__gnu_cxxneIPDsNSt7__cxx1112basic_stringIDsSt11char_traitsIDsESaIDsEEEEEbRKNS_17__normal_iteratorIT_T0_EESD_
	testb	%al, %al
	je	.L86
	leaq	-144(%rbp), %rax
	movq	%rax, %rdi
	call	_ZNK9__gnu_cxx17__normal_iteratorIPDsNSt7__cxx1112basic_stringIDsSt11char_traitsIDsESaIDsEEEEdeEv
	movzwl	(%rax), %eax
	movw	%ax, -178(%rbp)
	cmpw	$60, -178(%rbp)
	je	.L86
	cmpw	$34, -178(%rbp)
	je	.L86
	cmpw	$32, -178(%rbp)
	je	.L86
	movzwl	-178(%rbp), %edx
	leaq	-64(%rbp), %rax
	movl	%edx, %esi
	movq	%rax, %rdi
	call	_ZNSt7__cxx1112basic_stringIDsSt11char_traitsIDsESaIDsEEpLEDs
	leaq	-144(%rbp), %rax
	movq	%rax, %rdi
	call	_ZN9__gnu_cxx17__normal_iteratorIPDsNSt7__cxx1112basic_stringIDsSt11char_traitsIDsESaIDsEEEEppEv
	jmp	.L88
.L86:
	leaq	-64(%rbp), %rdx
	movq	-200(%rbp), %rax
	movq	%rdx, %rsi
	movq	%rax, %rdi
	call	_ZNSt6vectorINSt7__cxx1112basic_stringIDsSt11char_traitsIDsESaIDsEEESaIS5_EE9push_backERKS5_
.LEHE14:
	leaq	-64(%rbp), %rax
	movq	%rax, %rdi
	call	_ZNSt7__cxx1112basic_stringIDsSt11char_traitsIDsESaIDsEED1Ev
	leaq	-96(%rbp), %rax
	movq	%rax, %rdi
	call	_ZNSt7__cxx1112basic_stringIDsSt11char_traitsIDsESaIDsEED1Ev
	leaq	-176(%rbp), %rax
	movq	%rax, %rdi
	call	_ZN9__gnu_cxx17__normal_iteratorIPNSt7__cxx1112basic_stringIDsSt11char_traitsIDsESaIDsEEESt6vectorIS6_SaIS6_EEEppEv
	jmp	.L89
.L95:
	movq	%rax, %rbx
	leaq	-64(%rbp), %rax
	movq	%rax, %rdi
	call	_ZNSt7__cxx1112basic_stringIDsSt11char_traitsIDsESaIDsEED1Ev
	leaq	-96(%rbp), %rax
	movq	%rax, %rdi
	call	_ZNSt7__cxx1112basic_stringIDsSt11char_traitsIDsESaIDsEED1Ev
	movq	%rbx, %rax
	jmp	.L92
.L94:
.L92:
	movq	%rax, %rbx
	movq	-200(%rbp), %rax
	movq	%rax, %rdi
	call	_ZNSt6vectorINSt7__cxx1112basic_stringIDsSt11char_traitsIDsESaIDsEEESaIS5_EED1Ev
	movq	%rbx, %rax
	movq	%rax, %rdi
.LEHB15:
	call	_Unwind_Resume
.LEHE15:
.L96:
	nop
	movq	-200(%rbp), %rax
	movq	-24(%rbp), %rcx
	xorq	%fs:40, %rcx
	je	.L93
	call	__stack_chk_fail
.L93:
	addq	$200, %rsp
	popq	%rbx
	popq	%rbp
	.cfi_def_cfa 7, 8
	ret
	.cfi_endproc
.LFE8089:
	.section	.gcc_except_table
.LLSDA8089:
	.byte	0xff
	.byte	0xff
	.byte	0x1
	.uleb128 .LLSDACSE8089-.LLSDACSB8089
.LLSDACSB8089:
	.uleb128 .LEHB13-.LFB8089
	.uleb128 .LEHE13-.LEHB13
	.uleb128 .L94-.LFB8089
	.uleb128 0
	.uleb128 .LEHB14-.LFB8089
	.uleb128 .LEHE14-.LEHB14
	.uleb128 .L95-.LFB8089
	.uleb128 0
	.uleb128 .LEHB15-.LFB8089
	.uleb128 .LEHE15-.LEHB15
	.uleb128 0
	.uleb128 0
.LLSDACSE8089:
	.text
	.size	_Z13getIsSharpRowRSt6vectorINSt7__cxx1112basic_stringIDsSt11char_traitsIDsESaIDsEEESaIS5_EE, .-_Z13getIsSharpRowRSt6vectorINSt7__cxx1112basic_stringIDsSt11char_traitsIDsESaIDsEEESaIS5_EE
	.section	.text._ZNSt5stackINSt7__cxx1112basic_stringIDsSt11char_traitsIDsESaIDsEEESt5dequeIS5_SaIS5_EEED2Ev,"axG",@progbits,_ZNSt5stackINSt7__cxx1112basic_stringIDsSt11char_traitsIDsESaIDsEEESt5dequeIS5_SaIS5_EEED5Ev,comdat
	.align 2
	.weak	_ZNSt5stackINSt7__cxx1112basic_stringIDsSt11char_traitsIDsESaIDsEEESt5dequeIS5_SaIS5_EEED2Ev
	.type	_ZNSt5stackINSt7__cxx1112basic_stringIDsSt11char_traitsIDsESaIDsEEESt5dequeIS5_SaIS5_EEED2Ev, @function
_ZNSt5stackINSt7__cxx1112basic_stringIDsSt11char_traitsIDsESaIDsEEESt5dequeIS5_SaIS5_EEED2Ev:
.LFB8092:
	.cfi_startproc
	pushq	%rbp
	.cfi_def_cfa_offset 16
	.cfi_offset 6, -16
	movq	%rsp, %rbp
	.cfi_def_cfa_register 6
	subq	$16, %rsp
	movq	%rdi, -8(%rbp)
	movq	-8(%rbp), %rax
	movq	%rax, %rdi
	call	_ZNSt5dequeINSt7__cxx1112basic_stringIDsSt11char_traitsIDsESaIDsEEESaIS5_EED1Ev
	nop
	leave
	.cfi_def_cfa 7, 8
	ret
	.cfi_endproc
.LFE8092:
	.size	_ZNSt5stackINSt7__cxx1112basic_stringIDsSt11char_traitsIDsESaIDsEEESt5dequeIS5_SaIS5_EEED2Ev, .-_ZNSt5stackINSt7__cxx1112basic_stringIDsSt11char_traitsIDsESaIDsEEESt5dequeIS5_SaIS5_EEED2Ev
	.weak	_ZNSt5stackINSt7__cxx1112basic_stringIDsSt11char_traitsIDsESaIDsEEESt5dequeIS5_SaIS5_EEED1Ev
	.set	_ZNSt5stackINSt7__cxx1112basic_stringIDsSt11char_traitsIDsESaIDsEEESt5dequeIS5_SaIS5_EEED1Ev,_ZNSt5stackINSt7__cxx1112basic_stringIDsSt11char_traitsIDsESaIDsEEESt5dequeIS5_SaIS5_EEED2Ev
	.section	.rodata
	.align 2
.LC0:
	.string	"#"
	.string	"i"
	.string	"f"
	.string	"d"
	.string	"e"
	.string	"f"
	.string	""
	.string	""
	.align 2
.LC1:
	.string	"#"
	.string	"i"
	.string	"f"
	.string	"n"
	.string	"d"
	.string	"e"
	.string	"f"
	.string	""
	.string	""
	.align 2
.LC2:
	.string	"#"
	.string	"e"
	.string	"n"
	.string	"d"
	.string	"i"
	.string	"f"
	.string	""
	.string	""
	.align 8
.LC3:
	.string	"\346\262\241\346\234\211#ifdef/#ifndef\344\270\216\344\271\213\345\214\271\351\205\215a"
	.text
	.globl	_Z10isMatchingRSt6vectorINSt7__cxx1112basic_stringIDsSt11char_traitsIDsESaIDsEEESaIS5_EE
	.type	_Z10isMatchingRSt6vectorINSt7__cxx1112basic_stringIDsSt11char_traitsIDsESaIDsEEESaIS5_EE, @function
_Z10isMatchingRSt6vectorINSt7__cxx1112basic_stringIDsSt11char_traitsIDsESaIDsEEESaIS5_EE:
.LFB8090:
	.cfi_startproc
	.cfi_personality 0x3,__gxx_personality_v0
	.cfi_lsda 0x3,.LLSDA8090
	pushq	%rbp
	.cfi_def_cfa_offset 16
	.cfi_offset 6, -16
	movq	%rsp, %rbp
	.cfi_def_cfa_register 6
	pushq	%r12
	pushq	%rbx
	subq	$240, %rsp
	.cfi_offset 12, -24
	.cfi_offset 3, -32
	movq	%rdi, -248(%rbp)
	movq	%fs:40, %rax
	movq	%rax, -24(%rbp)
	xorl	%eax, %eax
	leaq	-144(%rbp), %rax
	movq	%rax, %rdi
.LEHB16:
	call	_ZNSt5dequeINSt7__cxx1112basic_stringIDsSt11char_traitsIDsESaIDsEEESaIS5_EEC1Ev
.LEHE16:
	leaq	-144(%rbp), %rdx
	leaq	-224(%rbp), %rax
	movq	%rdx, %rsi
	movq	%rax, %rdi
.LEHB17:
	call	_ZNSt5stackINSt7__cxx1112basic_stringIDsSt11char_traitsIDsESaIDsEEESt5dequeIS5_SaIS5_EEEC1EOS8_
.LEHE17:
	leaq	-144(%rbp), %rax
	movq	%rax, %rdi
	call	_ZNSt5dequeINSt7__cxx1112basic_stringIDsSt11char_traitsIDsESaIDsEEESaIS5_EED1Ev
	movq	-248(%rbp), %rax
	movq	%rax, -232(%rbp)
	movq	-232(%rbp), %rax
	movq	%rax, %rdi
	call	_ZNSt6vectorINSt7__cxx1112basic_stringIDsSt11char_traitsIDsESaIDsEEESaIS5_EE5beginEv
	movq	%rax, -240(%rbp)
	movq	-232(%rbp), %rax
	movq	%rax, %rdi
	call	_ZNSt6vectorINSt7__cxx1112basic_stringIDsSt11char_traitsIDsESaIDsEEESaIS5_EE3endEv
	movq	%rax, -144(%rbp)
.L111:
	leaq	-144(%rbp), %rdx
	leaq	-240(%rbp), %rax
	movq	%rdx, %rsi
	movq	%rax, %rdi
	call	_ZN9__gnu_cxxneIPNSt7__cxx1112basic_stringIDsSt11char_traitsIDsESaIDsEEESt6vectorIS6_SaIS6_EEEEbRKNS_17__normal_iteratorIT_T0_EESG_
	testb	%al, %al
	je	.L99
	leaq	-240(%rbp), %rax
	movq	%rax, %rdi
	call	_ZNK9__gnu_cxx17__normal_iteratorIPNSt7__cxx1112basic_stringIDsSt11char_traitsIDsESaIDsEEESt6vectorIS6_SaIS6_EEEdeEv
	movq	%rax, %rdx
	leaq	-64(%rbp), %rax
	movq	%rdx, %rsi
	movq	%rax, %rdi
.LEHB18:
	call	_ZNSt7__cxx1112basic_stringIDsSt11char_traitsIDsESaIDsEEC1ERKS4_
.LEHE18:
	leaq	-64(%rbp), %rax
	movl	$.LC0, %esi
	movq	%rax, %rdi
.LEHB19:
	call	_ZSteqIDsSt11char_traitsIDsESaIDsEEbRKNSt7__cxx1112basic_stringIT_T0_T1_EEPKS5_
	testb	%al, %al
	jne	.L100
	leaq	-64(%rbp), %rax
	movl	$.LC1, %esi
	movq	%rax, %rdi
	call	_ZSteqIDsSt11char_traitsIDsESaIDsEEbRKNSt7__cxx1112basic_stringIT_T0_T1_EEPKS5_
	testb	%al, %al
	je	.L101
.L100:
	movl	$1, %eax
	jmp	.L102
.L101:
	movl	$0, %eax
.L102:
	testb	%al, %al
	je	.L103
	leaq	-64(%rbp), %rdx
	leaq	-224(%rbp), %rax
	movq	%rdx, %rsi
	movq	%rax, %rdi
	call	_ZNSt5stackINSt7__cxx1112basic_stringIDsSt11char_traitsIDsESaIDsEEESt5dequeIS5_SaIS5_EEE4pushERKS5_
	jmp	.L104
.L103:
	leaq	-64(%rbp), %rax
	movl	$.LC2, %esi
	movq	%rax, %rdi
	call	_ZSteqIDsSt11char_traitsIDsESaIDsEEbRKNSt7__cxx1112basic_stringIT_T0_T1_EEPKS5_
	testb	%al, %al
	je	.L105
	leaq	-224(%rbp), %rax
	movq	%rax, %rdi
	call	_ZNKSt5stackINSt7__cxx1112basic_stringIDsSt11char_traitsIDsESaIDsEEESt5dequeIS5_SaIS5_EEE5emptyEv
	testb	%al, %al
	je	.L106
	movl	$.LC3, %esi
	movl	$_ZSt4cout, %edi
	call	_ZStlsISt11char_traitsIcEERSt13basic_ostreamIcT_ES5_PKc
	movl	$_ZSt4endlIcSt11char_traitsIcEERSt13basic_ostreamIT_T0_ES6_, %esi
	movq	%rax, %rdi
	call	_ZNSolsEPFRSoS_E
.LEHE19:
	movl	$0, %r12d
	movl	$0, %ebx
	jmp	.L107
.L106:
	leaq	-224(%rbp), %rax
	movq	%rax, %rdi
	call	_ZNSt5stackINSt7__cxx1112basic_stringIDsSt11char_traitsIDsESaIDsEEESt5dequeIS5_SaIS5_EEE3popEv
	jmp	.L104
.L105:
	movl	$1, %ebx
	jmp	.L107
.L104:
	movl	$2, %ebx
.L107:
	leaq	-64(%rbp), %rax
	movq	%rax, %rdi
	call	_ZNSt7__cxx1112basic_stringIDsSt11char_traitsIDsESaIDsEED1Ev
	testl	%ebx, %ebx
	je	.L114
	cmpl	$2, %ebx
	nop
	leaq	-240(%rbp), %rax
	movq	%rax, %rdi
	call	_ZN9__gnu_cxx17__normal_iteratorIPNSt7__cxx1112basic_stringIDsSt11char_traitsIDsESaIDsEEESt6vectorIS6_SaIS6_EEEppEv
	jmp	.L111
.L99:
	leaq	-224(%rbp), %rax
	movq	%rax, %rdi
	call	_ZNKSt5stackINSt7__cxx1112basic_stringIDsSt11char_traitsIDsESaIDsEEESt5dequeIS5_SaIS5_EEE5emptyEv
	testb	%al, %al
	je	.L123
	movl	$1, %r12d
	jmp	.L114
.L123:
	movl	$0, %r12d
.L114:
	leaq	-224(%rbp), %rax
	movq	%rax, %rdi
	call	_ZNSt5stackINSt7__cxx1112basic_stringIDsSt11char_traitsIDsESaIDsEEESt5dequeIS5_SaIS5_EEED1Ev
	movl	%r12d, %eax
	movq	-24(%rbp), %rcx
	xorq	%fs:40, %rcx
	je	.L119
	jmp	.L124
.L120:
	movq	%rax, %rbx
	leaq	-144(%rbp), %rax
	movq	%rax, %rdi
	call	_ZNSt5dequeINSt7__cxx1112basic_stringIDsSt11char_traitsIDsESaIDsEEESaIS5_EED1Ev
	movq	%rbx, %rax
	movq	%rax, %rdi
.LEHB20:
	call	_Unwind_Resume
.L122:
	movq	%rax, %rbx
	leaq	-64(%rbp), %rax
	movq	%rax, %rdi
	call	_ZNSt7__cxx1112basic_stringIDsSt11char_traitsIDsESaIDsEED1Ev
	jmp	.L118
.L121:
	movq	%rax, %rbx
.L118:
	leaq	-224(%rbp), %rax
	movq	%rax, %rdi
	call	_ZNSt5stackINSt7__cxx1112basic_stringIDsSt11char_traitsIDsESaIDsEEESt5dequeIS5_SaIS5_EEED1Ev
	movq	%rbx, %rax
	movq	%rax, %rdi
	call	_Unwind_Resume
.LEHE20:
.L124:
	call	__stack_chk_fail
.L119:
	addq	$240, %rsp
	popq	%rbx
	popq	%r12
	popq	%rbp
	.cfi_def_cfa 7, 8
	ret
	.cfi_endproc
.LFE8090:
	.section	.gcc_except_table
.LLSDA8090:
	.byte	0xff
	.byte	0xff
	.byte	0x1
	.uleb128 .LLSDACSE8090-.LLSDACSB8090
.LLSDACSB8090:
	.uleb128 .LEHB16-.LFB8090
	.uleb128 .LEHE16-.LEHB16
	.uleb128 0
	.uleb128 0
	.uleb128 .LEHB17-.LFB8090
	.uleb128 .LEHE17-.LEHB17
	.uleb128 .L120-.LFB8090
	.uleb128 0
	.uleb128 .LEHB18-.LFB8090
	.uleb128 .LEHE18-.LEHB18
	.uleb128 .L121-.LFB8090
	.uleb128 0
	.uleb128 .LEHB19-.LFB8090
	.uleb128 .LEHE19-.LEHB19
	.uleb128 .L122-.LFB8090
	.uleb128 0
	.uleb128 .LEHB20-.LFB8090
	.uleb128 .LEHE20-.LEHB20
	.uleb128 0
	.uleb128 0
.LLSDACSE8090:
	.text
	.size	_Z10isMatchingRSt6vectorINSt7__cxx1112basic_stringIDsSt11char_traitsIDsESaIDsEEESaIS5_EE, .-_Z10isMatchingRSt6vectorINSt7__cxx1112basic_stringIDsSt11char_traitsIDsESaIDsEEESaIS5_EE
	.section	.rodata
	.align 2
.LC4:
	.string	"#"
	.string	"i"
	.string	"n"
	.string	"c"
	.string	"l"
	.string	"u"
	.string	"d"
	.string	"e"
	.string	""
	.string	""
	.text
	.globl	_Z15checkTheIncludeRSt6vectorINSt7__cxx1112basic_stringIDsSt11char_traitsIDsESaIDsEEESaIS5_EE
	.type	_Z15checkTheIncludeRSt6vectorINSt7__cxx1112basic_stringIDsSt11char_traitsIDsESaIDsEEESaIS5_EE, @function
_Z15checkTheIncludeRSt6vectorINSt7__cxx1112basic_stringIDsSt11char_traitsIDsESaIDsEEESaIS5_EE:
.LFB8094:
	.cfi_startproc
	.cfi_personality 0x3,__gxx_personality_v0
	.cfi_lsda 0x3,.LLSDA8094
	pushq	%rbp
	.cfi_def_cfa_offset 16
	.cfi_offset 6, -16
	movq	%rsp, %rbp
	.cfi_def_cfa_register 6
	pushq	%r12
	pushq	%rbx
	subq	$112, %rsp
	.cfi_offset 12, -24
	.cfi_offset 3, -32
	movq	%rdi, -120(%rbp)
	movq	%fs:40, %rax
	movq	%rax, -24(%rbp)
	xorl	%eax, %eax
	movl	$0, -100(%rbp)
	movq	-120(%rbp), %rax
	movq	%rax, -72(%rbp)
	movq	-72(%rbp), %rax
	movq	%rax, %rdi
	call	_ZNSt6vectorINSt7__cxx1112basic_stringIDsSt11char_traitsIDsESaIDsEEESaIS5_EE5beginEv
	movq	%rax, -96(%rbp)
	movq	-72(%rbp), %rax
	movq	%rax, %rdi
	call	_ZNSt6vectorINSt7__cxx1112basic_stringIDsSt11char_traitsIDsESaIDsEEESaIS5_EE3endEv
	movq	%rax, -80(%rbp)
.L131:
	leaq	-80(%rbp), %rdx
	leaq	-96(%rbp), %rax
	movq	%rdx, %rsi
	movq	%rax, %rdi
	call	_ZN9__gnu_cxxneIPNSt7__cxx1112basic_stringIDsSt11char_traitsIDsESaIDsEEESt6vectorIS6_SaIS6_EEEEbRKNS_17__normal_iteratorIT_T0_EESG_
	testb	%al, %al
	je	.L126
	leaq	-96(%rbp), %rax
	movq	%rax, %rdi
	call	_ZNK9__gnu_cxx17__normal_iteratorIPNSt7__cxx1112basic_stringIDsSt11char_traitsIDsESaIDsEEESt6vectorIS6_SaIS6_EEEdeEv
	movq	%rax, %rdx
	leaq	-64(%rbp), %rax
	movq	%rdx, %rsi
	movq	%rax, %rdi
.LEHB21:
	call	_ZNSt7__cxx1112basic_stringIDsSt11char_traitsIDsESaIDsEEC1ERKS4_
.LEHE21:
	leaq	-64(%rbp), %rax
	movl	$.LC4, %esi
	movq	%rax, %rdi
.LEHB22:
	call	_ZSteqIDsSt11char_traitsIDsESaIDsEEbRKNSt7__cxx1112basic_stringIT_T0_T1_EEPKS5_
.LEHE22:
	testb	%al, %al
	je	.L127
	addl	$1, -100(%rbp)
	movl	-100(%rbp), %ebx
	movl	$0, %r12d
	jmp	.L128
.L127:
	addl	$1, -100(%rbp)
	movl	$1, %r12d
.L128:
	leaq	-64(%rbp), %rax
	movq	%rax, %rdi
	call	_ZNSt7__cxx1112basic_stringIDsSt11char_traitsIDsESaIDsEED1Ev
	cmpl	$1, %r12d
	jne	.L132
	nop
	leaq	-96(%rbp), %rax
	movq	%rax, %rdi
	call	_ZN9__gnu_cxx17__normal_iteratorIPNSt7__cxx1112basic_stringIDsSt11char_traitsIDsESaIDsEEESt6vectorIS6_SaIS6_EEEppEv
	jmp	.L131
.L126:
	movl	$0, -100(%rbp)
	movl	-100(%rbp), %ebx
.L132:
	movl	%ebx, %eax
	movq	-24(%rbp), %rcx
	xorq	%fs:40, %rcx
	je	.L134
	jmp	.L137
.L135:
	movq	%rax, %rbx
	leaq	-64(%rbp), %rax
	movq	%rax, %rdi
	call	_ZNSt7__cxx1112basic_stringIDsSt11char_traitsIDsESaIDsEED1Ev
	movq	%rbx, %rax
	movq	%rax, %rdi
.LEHB23:
	call	_Unwind_Resume
.LEHE23:
.L137:
	call	__stack_chk_fail
.L134:
	addq	$112, %rsp
	popq	%rbx
	popq	%r12
	popq	%rbp
	.cfi_def_cfa 7, 8
	ret
	.cfi_endproc
.LFE8094:
	.section	.gcc_except_table
.LLSDA8094:
	.byte	0xff
	.byte	0xff
	.byte	0x1
	.uleb128 .LLSDACSE8094-.LLSDACSB8094
.LLSDACSB8094:
	.uleb128 .LEHB21-.LFB8094
	.uleb128 .LEHE21-.LEHB21
	.uleb128 0
	.uleb128 0
	.uleb128 .LEHB22-.LFB8094
	.uleb128 .LEHE22-.LEHB22
	.uleb128 .L135-.LFB8094
	.uleb128 0
	.uleb128 .LEHB23-.LFB8094
	.uleb128 .LEHE23-.LEHB23
	.uleb128 0
	.uleb128 0
.LLSDACSE8094:
	.text
	.size	_Z15checkTheIncludeRSt6vectorINSt7__cxx1112basic_stringIDsSt11char_traitsIDsESaIDsEEESaIS5_EE, .-_Z15checkTheIncludeRSt6vectorINSt7__cxx1112basic_stringIDsSt11char_traitsIDsESaIDsEEESaIS5_EE
	.globl	_Z21findgetHeaderFileNameRSt6vectorINSt7__cxx1112basic_stringIDsSt11char_traitsIDsESaIDsEEESaIS5_EEi
	.type	_Z21findgetHeaderFileNameRSt6vectorINSt7__cxx1112basic_stringIDsSt11char_traitsIDsESaIDsEEESaIS5_EEi, @function
_Z21findgetHeaderFileNameRSt6vectorINSt7__cxx1112basic_stringIDsSt11char_traitsIDsESaIDsEEESaIS5_EEi:
.LFB8095:
	.cfi_startproc
	.cfi_personality 0x3,__gxx_personality_v0
	.cfi_lsda 0x3,.LLSDA8095
	pushq	%rbp
	.cfi_def_cfa_offset 16
	.cfi_offset 6, -16
	movq	%rsp, %rbp
	.cfi_def_cfa_register 6
	pushq	%rbx
	subq	$216, %rsp
	.cfi_offset 3, -24
	movq	%rdi, -200(%rbp)
	movq	%rsi, -208(%rbp)
	movl	%edx, -212(%rbp)
	movq	%fs:40, %rax
	movq	%rax, -24(%rbp)
	xorl	%eax, %eax
	movl	$0, -184(%rbp)
	movq	-200(%rbp), %rax
	movq	%rax, %rdi
	call	_ZNSt6vectorINSt7__cxx1112basic_stringIDsSt11char_traitsIDsESaIDsEEESaIS5_EEC1Ev
	leaq	-96(%rbp), %rax
	movq	%rax, %rdi
	call	_ZNSt7__cxx1112basic_stringIDsSt11char_traitsIDsESaIDsEEC1Ev
	movl	$1, -180(%rbp)
	movq	-208(%rbp), %rax
	movq	%rax, -112(%rbp)
	movq	-112(%rbp), %rax
	movq	%rax, %rdi
	call	_ZNSt6vectorINSt7__cxx1112basic_stringIDsSt11char_traitsIDsESaIDsEEESaIS5_EE5beginEv
	movq	%rax, -176(%rbp)
	movq	-112(%rbp), %rax
	movq	%rax, %rdi
	call	_ZNSt6vectorINSt7__cxx1112basic_stringIDsSt11char_traitsIDsESaIDsEEESaIS5_EE3endEv
	movq	%rax, -160(%rbp)
.L150:
	leaq	-160(%rbp), %rdx
	leaq	-176(%rbp), %rax
	movq	%rdx, %rsi
	movq	%rax, %rdi
	call	_ZN9__gnu_cxxneIPNSt7__cxx1112basic_stringIDsSt11char_traitsIDsESaIDsEEESt6vectorIS6_SaIS6_EEEEbRKNS_17__normal_iteratorIT_T0_EESG_
	testb	%al, %al
	je	.L160
	leaq	-176(%rbp), %rax
	movq	%rax, %rdi
	call	_ZNK9__gnu_cxx17__normal_iteratorIPNSt7__cxx1112basic_stringIDsSt11char_traitsIDsESaIDsEEESt6vectorIS6_SaIS6_EEEdeEv
	movq	%rax, %rdx
	leaq	-64(%rbp), %rax
	movq	%rdx, %rsi
	movq	%rax, %rdi
.LEHB24:
	call	_ZNSt7__cxx1112basic_stringIDsSt11char_traitsIDsESaIDsEEC1ERKS4_
.LEHE24:
	movl	-212(%rbp), %eax
	subl	$1, %eax
	cmpl	-184(%rbp), %eax
	jne	.L140
	leaq	-64(%rbp), %rax
	movq	%rax, -104(%rbp)
	movq	-104(%rbp), %rax
	movq	%rax, %rdi
	call	_ZNSt7__cxx1112basic_stringIDsSt11char_traitsIDsESaIDsEE5beginEv
	movq	%rax, -144(%rbp)
	movq	-104(%rbp), %rax
	movq	%rax, %rdi
	call	_ZNSt7__cxx1112basic_stringIDsSt11char_traitsIDsESaIDsEE3endEv
	movq	%rax, -128(%rbp)
.L147:
	leaq	-128(%rbp), %rdx
	leaq	-144(%rbp), %rax
	movq	%rdx, %rsi
	movq	%rax, %rdi
	call	_ZN9__gnu_cxxneIPDsNSt7__cxx1112basic_stringIDsSt11char_traitsIDsESaIDsEEEEEbRKNS_17__normal_iteratorIT_T0_EESD_
	testb	%al, %al
	je	.L141
	leaq	-144(%rbp), %rax
	movq	%rax, %rdi
	call	_ZNK9__gnu_cxx17__normal_iteratorIPDsNSt7__cxx1112basic_stringIDsSt11char_traitsIDsESaIDsEEEEdeEv
	movzwl	(%rax), %eax
	movw	%ax, -186(%rbp)
	cmpw	$60, -186(%rbp)
	je	.L142
	cmpw	$34, -186(%rbp)
	jne	.L143
.L142:
	movl	$2, -180(%rbp)
.L143:
	cmpl	$2, -180(%rbp)
	jne	.L144
	cmpw	$60, -186(%rbp)
	je	.L161
	cmpw	$34, -186(%rbp)
	je	.L161
	cmpw	$62, -186(%rbp)
	je	.L161
	movzwl	-186(%rbp), %edx
	leaq	-96(%rbp), %rax
	movl	%edx, %esi
	movq	%rax, %rdi
.LEHB25:
	call	_ZNSt7__cxx1112basic_stringIDsSt11char_traitsIDsESaIDsEEpLEDs
	jmp	.L144
.L161:
	nop
.L144:
	leaq	-144(%rbp), %rax
	movq	%rax, %rdi
	call	_ZN9__gnu_cxx17__normal_iteratorIPDsNSt7__cxx1112basic_stringIDsSt11char_traitsIDsESaIDsEEEEppEv
	jmp	.L147
.L141:
	leaq	-96(%rbp), %rdx
	movq	-200(%rbp), %rax
	movq	%rdx, %rsi
	movq	%rax, %rdi
	call	_ZNSt6vectorINSt7__cxx1112basic_stringIDsSt11char_traitsIDsESaIDsEEESaIS5_EE9push_backERKS5_
.LEHE25:
	movl	$0, %ebx
	jmp	.L148
.L140:
	addl	$1, -184(%rbp)
	movl	$1, %ebx
.L148:
	leaq	-64(%rbp), %rax
	movq	%rax, %rdi
	call	_ZNSt7__cxx1112basic_stringIDsSt11char_traitsIDsESaIDsEED1Ev
	cmpl	$1, %ebx
	jne	.L160
	nop
	leaq	-176(%rbp), %rax
	movq	%rax, %rdi
	call	_ZN9__gnu_cxx17__normal_iteratorIPNSt7__cxx1112basic_stringIDsSt11char_traitsIDsESaIDsEEESt6vectorIS6_SaIS6_EEEppEv
	jmp	.L150
.L160:
	nop
	leaq	-96(%rbp), %rax
	movq	%rax, %rdi
	call	_ZNSt7__cxx1112basic_stringIDsSt11char_traitsIDsESaIDsEED1Ev
	nop
	movq	-200(%rbp), %rax
	movq	-24(%rbp), %rcx
	xorq	%fs:40, %rcx
	je	.L154
	jmp	.L159
.L156:
	movq	%rax, %rbx
	leaq	-64(%rbp), %rax
	movq	%rax, %rdi
	call	_ZNSt7__cxx1112basic_stringIDsSt11char_traitsIDsESaIDsEED1Ev
	jmp	.L153
.L155:
	movq	%rax, %rbx
.L153:
	leaq	-96(%rbp), %rax
	movq	%rax, %rdi
	call	_ZNSt7__cxx1112basic_stringIDsSt11char_traitsIDsESaIDsEED1Ev
	movq	-200(%rbp), %rax
	movq	%rax, %rdi
	call	_ZNSt6vectorINSt7__cxx1112basic_stringIDsSt11char_traitsIDsESaIDsEEESaIS5_EED1Ev
	movq	%rbx, %rax
	movq	%rax, %rdi
.LEHB26:
	call	_Unwind_Resume
.LEHE26:
.L159:
	call	__stack_chk_fail
.L154:
	addq	$216, %rsp
	popq	%rbx
	popq	%rbp
	.cfi_def_cfa 7, 8
	ret
	.cfi_endproc
.LFE8095:
	.section	.gcc_except_table
.LLSDA8095:
	.byte	0xff
	.byte	0xff
	.byte	0x1
	.uleb128 .LLSDACSE8095-.LLSDACSB8095
.LLSDACSB8095:
	.uleb128 .LEHB24-.LFB8095
	.uleb128 .LEHE24-.LEHB24
	.uleb128 .L155-.LFB8095
	.uleb128 0
	.uleb128 .LEHB25-.LFB8095
	.uleb128 .LEHE25-.LEHB25
	.uleb128 .L156-.LFB8095
	.uleb128 0
	.uleb128 .LEHB26-.LFB8095
	.uleb128 .LEHE26-.LEHB26
	.uleb128 0
	.uleb128 0
.LLSDACSE8095:
	.text
	.size	_Z21findgetHeaderFileNameRSt6vectorINSt7__cxx1112basic_stringIDsSt11char_traitsIDsESaIDsEEESaIS5_EEi, .-_Z21findgetHeaderFileNameRSt6vectorINSt7__cxx1112basic_stringIDsSt11char_traitsIDsESaIDsEEESaIS5_EEi
	.section	.rodata
.LC5:
	.string	"include/"
	.text
	.globl	_Z20expansionIncludeFileRSt6vectorINSt7__cxx1112basic_stringIDsSt11char_traitsIDsESaIDsEEESaIS5_EE
	.type	_Z20expansionIncludeFileRSt6vectorINSt7__cxx1112basic_stringIDsSt11char_traitsIDsESaIDsEEESaIS5_EE, @function
_Z20expansionIncludeFileRSt6vectorINSt7__cxx1112basic_stringIDsSt11char_traitsIDsESaIDsEEESaIS5_EE:
.LFB8096:
	.cfi_startproc
	.cfi_personality 0x3,__gxx_personality_v0
	.cfi_lsda 0x3,.LLSDA8096
	pushq	%rbp
	.cfi_def_cfa_offset 16
	.cfi_offset 6, -16
	movq	%rsp, %rbp
	.cfi_def_cfa_register 6
	pushq	%rbx
	subq	$1000, %rsp
	.cfi_offset 3, -24
	movq	%rdi, -1000(%rbp)
	movq	%rsi, -1008(%rbp)
	movq	%fs:40, %rax
	movq	%rax, -24(%rbp)
	xorl	%eax, %eax
	leaq	-912(%rbp), %rax
	movq	%rax, %rdi
	call	_ZNSt6vectorINSt7__cxx1112basic_stringIDsSt11char_traitsIDsESaIDsEEESaIS5_EEC1Ev
	leaq	-880(%rbp), %rax
	movq	%rax, %rdi
	call	_ZNSt6vectorINSt7__cxx1112basic_stringIDsSt11char_traitsIDsESaIDsEEESaIS5_EEC1Ev
	movl	$1, -984(%rbp)
	leaq	-848(%rbp), %rax
	movq	-1008(%rbp), %rdx
	movq	%rdx, %rsi
	movq	%rax, %rdi
.LEHB27:
	call	_Z13getIsSharpRowRSt6vectorINSt7__cxx1112basic_stringIDsSt11char_traitsIDsESaIDsEEESaIS5_EE
.LEHE27:
	leaq	-848(%rbp), %rdx
	leaq	-912(%rbp), %rax
	movq	%rdx, %rsi
	movq	%rax, %rdi
	call	_ZNSt6vectorINSt7__cxx1112basic_stringIDsSt11char_traitsIDsESaIDsEEESaIS5_EEaSEOS7_
	leaq	-848(%rbp), %rax
	movq	%rax, %rdi
	call	_ZNSt6vectorINSt7__cxx1112basic_stringIDsSt11char_traitsIDsESaIDsEEESaIS5_EED1Ev
.L174:
	cmpl	$0, -984(%rbp)
	je	.L163
	leaq	-752(%rbp), %rax
	movq	%rax, %rdi
	call	_ZNSt7__cxx1112basic_stringIDsSt11char_traitsIDsESaIDsEEC1Ev
	leaq	-912(%rbp), %rax
	movq	%rax, %rdi
.LEHB28:
	call	_Z15checkTheIncludeRSt6vectorINSt7__cxx1112basic_stringIDsSt11char_traitsIDsESaIDsEEESaIS5_EE
	movl	%eax, -984(%rbp)
	cmpl	$0, -984(%rbp)
	je	.L164
	movl	-984(%rbp), %eax
	movl	%eax, -980(%rbp)
	leaq	-816(%rbp), %rax
	movl	-984(%rbp), %edx
	movq	-1008(%rbp), %rcx
	movq	%rcx, %rsi
	movq	%rax, %rdi
	call	_Z21findgetHeaderFileNameRSt6vectorINSt7__cxx1112basic_stringIDsSt11char_traitsIDsESaIDsEEESaIS5_EEi
	leaq	-816(%rbp), %rdx
	leaq	-880(%rbp), %rax
	movq	%rdx, %rsi
	movq	%rax, %rdi
	call	_ZNSt6vectorINSt7__cxx1112basic_stringIDsSt11char_traitsIDsESaIDsEEESaIS5_EEaSEOS7_
	leaq	-816(%rbp), %rax
	movq	%rax, %rdi
	call	_ZNSt6vectorINSt7__cxx1112basic_stringIDsSt11char_traitsIDsESaIDsEEESaIS5_EED1Ev
	leaq	-880(%rbp), %rax
	movq	%rax, -936(%rbp)
	movq	-936(%rbp), %rax
	movq	%rax, %rdi
	call	_ZNSt6vectorINSt7__cxx1112basic_stringIDsSt11char_traitsIDsESaIDsEEESaIS5_EE5beginEv
	movq	%rax, -944(%rbp)
	movq	-936(%rbp), %rax
	movq	%rax, %rdi
	call	_ZNSt6vectorINSt7__cxx1112basic_stringIDsSt11char_traitsIDsESaIDsEEESaIS5_EE3endEv
	movq	%rax, -848(%rbp)
.L168:
	leaq	-848(%rbp), %rdx
	leaq	-944(%rbp), %rax
	movq	%rdx, %rsi
	movq	%rax, %rdi
	call	_ZN9__gnu_cxxneIPNSt7__cxx1112basic_stringIDsSt11char_traitsIDsESaIDsEEESt6vectorIS6_SaIS6_EEEEbRKNS_17__normal_iteratorIT_T0_EESG_
	testb	%al, %al
	je	.L165
	leaq	-944(%rbp), %rax
	movq	%rax, %rdi
	call	_ZNK9__gnu_cxx17__normal_iteratorIPNSt7__cxx1112basic_stringIDsSt11char_traitsIDsESaIDsEEESt6vectorIS6_SaIS6_EEEdeEv
	movq	%rax, %rdx
	leaq	-560(%rbp), %rax
	movq	%rdx, %rsi
	movq	%rax, %rdi
	call	_ZNSt7__cxx1112basic_stringIDsSt11char_traitsIDsESaIDsEEC1ERKS4_
.LEHE28:
	leaq	-560(%rbp), %rax
	movq	%rax, -928(%rbp)
	movq	-928(%rbp), %rax
	movq	%rax, %rdi
	call	_ZNSt7__cxx1112basic_stringIDsSt11char_traitsIDsESaIDsEE5beginEv
	movq	%rax, -816(%rbp)
	movq	-928(%rbp), %rax
	movq	%rax, %rdi
	call	_ZNSt7__cxx1112basic_stringIDsSt11char_traitsIDsESaIDsEE3endEv
	movq	%rax, -784(%rbp)
.L167:
	leaq	-784(%rbp), %rdx
	leaq	-816(%rbp), %rax
	movq	%rdx, %rsi
	movq	%rax, %rdi
	call	_ZN9__gnu_cxxneIPDsNSt7__cxx1112basic_stringIDsSt11char_traitsIDsESaIDsEEEEEbRKNS_17__normal_iteratorIT_T0_EESD_
	testb	%al, %al
	je	.L166
	leaq	-816(%rbp), %rax
	movq	%rax, %rdi
	call	_ZNK9__gnu_cxx17__normal_iteratorIPDsNSt7__cxx1112basic_stringIDsSt11char_traitsIDsESaIDsEEEEdeEv
	movzwl	(%rax), %eax
	movw	%ax, -986(%rbp)
	movzwl	-986(%rbp), %edx
	leaq	-752(%rbp), %rax
	movl	%edx, %esi
	movq	%rax, %rdi
.LEHB29:
	call	_ZNSt7__cxx1112basic_stringIDsSt11char_traitsIDsESaIDsEEpLEDs
.LEHE29:
	leaq	-816(%rbp), %rax
	movq	%rax, %rdi
	call	_ZN9__gnu_cxx17__normal_iteratorIPDsNSt7__cxx1112basic_stringIDsSt11char_traitsIDsESaIDsEEEEppEv
	jmp	.L167
.L166:
	leaq	-560(%rbp), %rax
	movq	%rax, %rdi
	call	_ZNSt7__cxx1112basic_stringIDsSt11char_traitsIDsESaIDsEED1Ev
	leaq	-944(%rbp), %rax
	movq	%rax, %rdi
	call	_ZN9__gnu_cxx17__normal_iteratorIPNSt7__cxx1112basic_stringIDsSt11char_traitsIDsESaIDsEEESt6vectorIS6_SaIS6_EEEppEv
	jmp	.L168
.L165:
	leaq	-752(%rbp), %rdx
	leaq	-560(%rbp), %rax
	movq	%rdx, %rsi
	movq	%rax, %rdi
.LEHB30:
	call	_ZNSt7__cxx1112basic_stringIDsSt11char_traitsIDsESaIDsEEC1ERKS4_
.LEHE30:
	leaq	-720(%rbp), %rax
	leaq	-560(%rbp), %rdx
	movq	%rdx, %rsi
	movq	%rax, %rdi
.LEHB31:
	call	_Z8to_bytesNSt7__cxx1112basic_stringIDsSt11char_traitsIDsESaIDsEEE
.LEHE31:
	leaq	-560(%rbp), %rax
	movq	%rax, %rdi
	call	_ZNSt7__cxx1112basic_stringIDsSt11char_traitsIDsESaIDsEED1Ev
	leaq	-720(%rbp), %rax
	movl	$0, %esi
	movq	%rax, %rdi
.LEHB32:
	call	_ZNSt7__cxx1112basic_stringIcSt11char_traitsIcESaIcEEixEm
	movzbl	(%rax), %eax
	cmpb	$47, %al
	setne	%al
	testb	%al, %al
	je	.L169
	leaq	-688(%rbp), %rax
	leaq	-720(%rbp), %rdx
	movl	$.LC5, %esi
	movq	%rax, %rdi
	call	_ZStplIcSt11char_traitsIcESaIcEENSt7__cxx1112basic_stringIT_T0_T1_EEPKS5_RKS8_
.LEHE32:
	leaq	-688(%rbp), %rdx
	leaq	-720(%rbp), %rax
	movq	%rdx, %rsi
	movq	%rax, %rdi
.LEHB33:
	call	_ZNSt7__cxx1112basic_stringIcSt11char_traitsIcESaIcEEaSEOS4_
.LEHE33:
	leaq	-688(%rbp), %rax
	movq	%rax, %rdi
	call	_ZNSt7__cxx1112basic_stringIcSt11char_traitsIcESaIcEED1Ev
.L169:
	leaq	-720(%rbp), %rcx
	leaq	-560(%rbp), %rax
	movl	$8, %edx
	movq	%rcx, %rsi
	movq	%rax, %rdi
.LEHB34:
	call	_ZNSt13basic_fstreamIcSt11char_traitsIcEEC1ERKNSt7__cxx1112basic_stringIcS1_SaIcEEESt13_Ios_Openmode
.LEHE34:
	leaq	-656(%rbp), %rax
	movq	%rax, %rdi
	call	_ZNSt7__cxx1112basic_stringIcSt11char_traitsIcESaIcEEC1Ev
	leaq	-816(%rbp), %rax
	movq	%rax, %rdi
	call	_ZNSt6vectorINSt7__cxx1112basic_stringIDsSt11char_traitsIDsESaIDsEEESaIS5_EEC1Ev
.L171:
	leaq	-656(%rbp), %rdx
	leaq	-560(%rbp), %rax
	movq	%rdx, %rsi
	movq	%rax, %rdi
.LEHB35:
	call	_ZSt7getlineIcSt11char_traitsIcESaIcEERSt13basic_istreamIT_T0_ES7_RNSt7__cxx1112basic_stringIS4_S5_T1_EE
	movq	(%rax), %rdx
	subq	$24, %rdx
	movq	(%rdx), %rdx
	addq	%rdx, %rax
	movq	%rax, %rdi
	call	_ZNKSt9basic_iosIcSt11char_traitsIcEEcvbEv
	testb	%al, %al
	je	.L170
	leaq	-656(%rbp), %rdx
	leaq	-624(%rbp), %rax
	movq	%rdx, %rsi
	movq	%rax, %rdi
	call	_ZNSt7__cxx1112basic_stringIcSt11char_traitsIcESaIcEEC1ERKS4_
.LEHE35:
	leaq	-592(%rbp), %rax
	leaq	-624(%rbp), %rdx
	movq	%rdx, %rsi
	movq	%rax, %rdi
.LEHB36:
	call	_Z10from_bytesNSt7__cxx1112basic_stringIcSt11char_traitsIcESaIcEEE
.LEHE36:
	leaq	-592(%rbp), %rdx
	leaq	-816(%rbp), %rax
	movq	%rdx, %rsi
	movq	%rax, %rdi
.LEHB37:
	call	_ZNSt6vectorINSt7__cxx1112basic_stringIDsSt11char_traitsIDsESaIDsEEESaIS5_EE9push_backEOS5_
.LEHE37:
	leaq	-592(%rbp), %rax
	movq	%rax, %rdi
	call	_ZNSt7__cxx1112basic_stringIDsSt11char_traitsIDsESaIDsEED1Ev
	leaq	-624(%rbp), %rax
	movq	%rax, %rdi
	call	_ZNSt7__cxx1112basic_stringIcSt11char_traitsIcESaIcEED1Ev
	jmp	.L171
.L170:
	movl	-984(%rbp), %eax
	movslq	%eax, %rbx
	leaq	-912(%rbp), %rax
	movq	%rax, %rdi
	call	_ZNSt6vectorINSt7__cxx1112basic_stringIDsSt11char_traitsIDsESaIDsEEESaIS5_EE5beginEv
	movq	%rax, -960(%rbp)
	leaq	-960(%rbp), %rax
	movq	%rbx, %rsi
	movq	%rax, %rdi
	call	_ZNK9__gnu_cxx17__normal_iteratorIPNSt7__cxx1112basic_stringIDsSt11char_traitsIDsESaIDsEEESt6vectorIS6_SaIS6_EEEplEl
	movq	%rax, -944(%rbp)
	leaq	-944(%rbp), %rax
	movl	$1, %esi
	movq	%rax, %rdi
	call	_ZNK9__gnu_cxx17__normal_iteratorIPNSt7__cxx1112basic_stringIDsSt11char_traitsIDsESaIDsEEESt6vectorIS6_SaIS6_EEEmiEl
	movq	%rax, -848(%rbp)
	leaq	-848(%rbp), %rdx
	leaq	-784(%rbp), %rax
	movq	%rdx, %rsi
	movq	%rax, %rdi
	call	_ZN9__gnu_cxx17__normal_iteratorIPKNSt7__cxx1112basic_stringIDsSt11char_traitsIDsESaIDsEEESt6vectorIS6_SaIS6_EEEC1IPS6_EERKNS0_IT_NS_11__enable_ifIXsrSt10__are_sameISF_SE_E7__valueESB_E6__typeEEE
	movq	-784(%rbp), %rdx
	leaq	-912(%rbp), %rax
	movq	%rdx, %rsi
	movq	%rax, %rdi
.LEHB38:
	call	_ZNSt6vectorINSt7__cxx1112basic_stringIDsSt11char_traitsIDsESaIDsEEESaIS5_EE5eraseEN9__gnu_cxx17__normal_iteratorIPKS5_S7_EE
	leaq	-816(%rbp), %rax
	movq	%rax, -920(%rbp)
	movq	-920(%rbp), %rax
	movq	%rax, %rdi
	call	_ZNSt6vectorINSt7__cxx1112basic_stringIDsSt11char_traitsIDsESaIDsEEESaIS5_EE5beginEv
	movq	%rax, -976(%rbp)
	movq	-920(%rbp), %rax
	movq	%rax, %rdi
	call	_ZNSt6vectorINSt7__cxx1112basic_stringIDsSt11char_traitsIDsESaIDsEEESaIS5_EE3endEv
	movq	%rax, -960(%rbp)
.L173:
	leaq	-960(%rbp), %rdx
	leaq	-976(%rbp), %rax
	movq	%rdx, %rsi
	movq	%rax, %rdi
	call	_ZN9__gnu_cxxneIPNSt7__cxx1112basic_stringIDsSt11char_traitsIDsESaIDsEEESt6vectorIS6_SaIS6_EEEEbRKNS_17__normal_iteratorIT_T0_EESG_
	testb	%al, %al
	je	.L172
	leaq	-976(%rbp), %rax
	movq	%rax, %rdi
	call	_ZNK9__gnu_cxx17__normal_iteratorIPNSt7__cxx1112basic_stringIDsSt11char_traitsIDsESaIDsEEESt6vectorIS6_SaIS6_EEEdeEv
	movq	%rax, %rdx
	leaq	-592(%rbp), %rax
	movq	%rdx, %rsi
	movq	%rax, %rdi
	call	_ZNSt7__cxx1112basic_stringIDsSt11char_traitsIDsESaIDsEEC1ERKS4_
.LEHE38:
	movl	-980(%rbp), %eax
	movslq	%eax, %rbx
	movq	-1008(%rbp), %rax
	movq	%rax, %rdi
	call	_ZNSt6vectorINSt7__cxx1112basic_stringIDsSt11char_traitsIDsESaIDsEEESaIS5_EE5beginEv
	movq	%rax, -944(%rbp)
	leaq	-944(%rbp), %rax
	movq	%rbx, %rsi
	movq	%rax, %rdi
	call	_ZNK9__gnu_cxx17__normal_iteratorIPNSt7__cxx1112basic_stringIDsSt11char_traitsIDsESaIDsEEESt6vectorIS6_SaIS6_EEEplEl
	movq	%rax, -848(%rbp)
	leaq	-848(%rbp), %rdx
	leaq	-784(%rbp), %rax
	movq	%rdx, %rsi
	movq	%rax, %rdi
	call	_ZN9__gnu_cxx17__normal_iteratorIPKNSt7__cxx1112basic_stringIDsSt11char_traitsIDsESaIDsEEESt6vectorIS6_SaIS6_EEEC1IPS6_EERKNS0_IT_NS_11__enable_ifIXsrSt10__are_sameISF_SE_E7__valueESB_E6__typeEEE
	leaq	-592(%rbp), %rdx
	movq	-784(%rbp), %rcx
	movq	-1008(%rbp), %rax
	movq	%rcx, %rsi
	movq	%rax, %rdi
.LEHB39:
	call	_ZNSt6vectorINSt7__cxx1112basic_stringIDsSt11char_traitsIDsESaIDsEEESaIS5_EE6insertEN9__gnu_cxx17__normal_iteratorIPKS5_S7_EERSA_
.LEHE39:
	addl	$1, -980(%rbp)
	leaq	-592(%rbp), %rax
	movq	%rax, %rdi
	call	_ZNSt7__cxx1112basic_stringIDsSt11char_traitsIDsESaIDsEED1Ev
	leaq	-976(%rbp), %rax
	movq	%rax, %rdi
	call	_ZN9__gnu_cxx17__normal_iteratorIPNSt7__cxx1112basic_stringIDsSt11char_traitsIDsESaIDsEEESt6vectorIS6_SaIS6_EEEppEv
	jmp	.L173
.L172:
	movl	-984(%rbp), %eax
	movslq	%eax, %rbx
	movq	-1008(%rbp), %rax
	movq	%rax, %rdi
	call	_ZNSt6vectorINSt7__cxx1112basic_stringIDsSt11char_traitsIDsESaIDsEEESaIS5_EE5beginEv
	movq	%rax, -960(%rbp)
	leaq	-960(%rbp), %rax
	movq	%rbx, %rsi
	movq	%rax, %rdi
	call	_ZNK9__gnu_cxx17__normal_iteratorIPNSt7__cxx1112basic_stringIDsSt11char_traitsIDsESaIDsEEESt6vectorIS6_SaIS6_EEEplEl
	movq	%rax, -944(%rbp)
	leaq	-944(%rbp), %rax
	movl	$1, %esi
	movq	%rax, %rdi
	call	_ZNK9__gnu_cxx17__normal_iteratorIPNSt7__cxx1112basic_stringIDsSt11char_traitsIDsESaIDsEEESt6vectorIS6_SaIS6_EEEmiEl
	movq	%rax, -848(%rbp)
	leaq	-848(%rbp), %rdx
	leaq	-784(%rbp), %rax
	movq	%rdx, %rsi
	movq	%rax, %rdi
	call	_ZN9__gnu_cxx17__normal_iteratorIPKNSt7__cxx1112basic_stringIDsSt11char_traitsIDsESaIDsEEESt6vectorIS6_SaIS6_EEEC1IPS6_EERKNS0_IT_NS_11__enable_ifIXsrSt10__are_sameISF_SE_E7__valueESB_E6__typeEEE
	movq	-784(%rbp), %rdx
	movq	-1008(%rbp), %rax
	movq	%rdx, %rsi
	movq	%rax, %rdi
.LEHB40:
	call	_ZNSt6vectorINSt7__cxx1112basic_stringIDsSt11char_traitsIDsESaIDsEEESaIS5_EE5eraseEN9__gnu_cxx17__normal_iteratorIPKS5_S7_EE
	leaq	-784(%rbp), %rax
	movq	-1008(%rbp), %rdx
	movq	%rdx, %rsi
	movq	%rax, %rdi
	call	_Z13getIsSharpRowRSt6vectorINSt7__cxx1112basic_stringIDsSt11char_traitsIDsESaIDsEEESaIS5_EE
.LEHE40:
	leaq	-784(%rbp), %rdx
	leaq	-912(%rbp), %rax
	movq	%rdx, %rsi
	movq	%rax, %rdi
	call	_ZNSt6vectorINSt7__cxx1112basic_stringIDsSt11char_traitsIDsESaIDsEEESaIS5_EEaSEOS7_
	leaq	-784(%rbp), %rax
	movq	%rax, %rdi
	call	_ZNSt6vectorINSt7__cxx1112basic_stringIDsSt11char_traitsIDsESaIDsEEESaIS5_EED1Ev
	leaq	-816(%rbp), %rax
	movq	%rax, %rdi
	call	_ZNSt6vectorINSt7__cxx1112basic_stringIDsSt11char_traitsIDsESaIDsEEESaIS5_EED1Ev
	leaq	-656(%rbp), %rax
	movq	%rax, %rdi
	call	_ZNSt7__cxx1112basic_stringIcSt11char_traitsIcESaIcEED1Ev
	leaq	-560(%rbp), %rax
	movq	%rax, %rdi
	call	_ZNSt13basic_fstreamIcSt11char_traitsIcEED1Ev
	leaq	-720(%rbp), %rax
	movq	%rax, %rdi
	call	_ZNSt7__cxx1112basic_stringIcSt11char_traitsIcESaIcEED1Ev
.L164:
	leaq	-752(%rbp), %rax
	movq	%rax, %rdi
	call	_ZNSt7__cxx1112basic_stringIDsSt11char_traitsIDsESaIDsEED1Ev
	jmp	.L174
.L163:
	movq	-1008(%rbp), %rdx
	movq	-1000(%rbp), %rax
	movq	%rdx, %rsi
	movq	%rax, %rdi
.LEHB41:
	call	_ZNSt6vectorINSt7__cxx1112basic_stringIDsSt11char_traitsIDsESaIDsEEESaIS5_EEC1ERKS7_
.LEHE41:
	nop
	leaq	-880(%rbp), %rax
	movq	%rax, %rdi
	call	_ZNSt6vectorINSt7__cxx1112basic_stringIDsSt11char_traitsIDsESaIDsEEESaIS5_EED1Ev
	leaq	-912(%rbp), %rax
	movq	%rax, %rdi
	call	_ZNSt6vectorINSt7__cxx1112basic_stringIDsSt11char_traitsIDsESaIDsEEESaIS5_EED1Ev
	nop
	movq	-1000(%rbp), %rax
	movq	-24(%rbp), %rcx
	xorq	%fs:40, %rcx
	je	.L186
	jmp	.L197
.L189:
	movq	%rax, %rbx
	leaq	-560(%rbp), %rax
	movq	%rax, %rdi
	call	_ZNSt7__cxx1112basic_stringIDsSt11char_traitsIDsESaIDsEED1Ev
	jmp	.L177
.L190:
	movq	%rax, %rbx
	leaq	-560(%rbp), %rax
	movq	%rax, %rdi
	call	_ZNSt7__cxx1112basic_stringIDsSt11char_traitsIDsESaIDsEED1Ev
	jmp	.L177
.L192:
	movq	%rax, %rbx
	leaq	-688(%rbp), %rax
	movq	%rax, %rdi
	call	_ZNSt7__cxx1112basic_stringIcSt11char_traitsIcESaIcEED1Ev
	jmp	.L180
.L195:
	movq	%rax, %rbx
	leaq	-592(%rbp), %rax
	movq	%rax, %rdi
	call	_ZNSt7__cxx1112basic_stringIDsSt11char_traitsIDsESaIDsEED1Ev
	jmp	.L182
.L194:
	movq	%rax, %rbx
.L182:
	leaq	-624(%rbp), %rax
	movq	%rax, %rdi
	call	_ZNSt7__cxx1112basic_stringIcSt11char_traitsIcESaIcEED1Ev
	jmp	.L183
.L196:
	movq	%rax, %rbx
	leaq	-592(%rbp), %rax
	movq	%rax, %rdi
	call	_ZNSt7__cxx1112basic_stringIDsSt11char_traitsIDsESaIDsEED1Ev
	jmp	.L183
.L193:
	movq	%rax, %rbx
.L183:
	leaq	-816(%rbp), %rax
	movq	%rax, %rdi
	call	_ZNSt6vectorINSt7__cxx1112basic_stringIDsSt11char_traitsIDsESaIDsEEESaIS5_EED1Ev
	leaq	-656(%rbp), %rax
	movq	%rax, %rdi
	call	_ZNSt7__cxx1112basic_stringIcSt11char_traitsIcESaIcEED1Ev
	leaq	-560(%rbp), %rax
	movq	%rax, %rdi
	call	_ZNSt13basic_fstreamIcSt11char_traitsIcEED1Ev
	jmp	.L180
.L191:
	movq	%rax, %rbx
.L180:
	leaq	-720(%rbp), %rax
	movq	%rax, %rdi
	call	_ZNSt7__cxx1112basic_stringIcSt11char_traitsIcESaIcEED1Ev
	jmp	.L177
.L188:
	movq	%rax, %rbx
.L177:
	leaq	-752(%rbp), %rax
	movq	%rax, %rdi
	call	_ZNSt7__cxx1112basic_stringIDsSt11char_traitsIDsESaIDsEED1Ev
	jmp	.L185
.L187:
	movq	%rax, %rbx
.L185:
	leaq	-880(%rbp), %rax
	movq	%rax, %rdi
	call	_ZNSt6vectorINSt7__cxx1112basic_stringIDsSt11char_traitsIDsESaIDsEEESaIS5_EED1Ev
	leaq	-912(%rbp), %rax
	movq	%rax, %rdi
	call	_ZNSt6vectorINSt7__cxx1112basic_stringIDsSt11char_traitsIDsESaIDsEEESaIS5_EED1Ev
	movq	%rbx, %rax
	movq	%rax, %rdi
.LEHB42:
	call	_Unwind_Resume
.LEHE42:
.L197:
	call	__stack_chk_fail
.L186:
	addq	$1000, %rsp
	popq	%rbx
	popq	%rbp
	.cfi_def_cfa 7, 8
	ret
	.cfi_endproc
.LFE8096:
	.section	.gcc_except_table
.LLSDA8096:
	.byte	0xff
	.byte	0xff
	.byte	0x1
	.uleb128 .LLSDACSE8096-.LLSDACSB8096
.LLSDACSB8096:
	.uleb128 .LEHB27-.LFB8096
	.uleb128 .LEHE27-.LEHB27
	.uleb128 .L187-.LFB8096
	.uleb128 0
	.uleb128 .LEHB28-.LFB8096
	.uleb128 .LEHE28-.LEHB28
	.uleb128 .L188-.LFB8096
	.uleb128 0
	.uleb128 .LEHB29-.LFB8096
	.uleb128 .LEHE29-.LEHB29
	.uleb128 .L189-.LFB8096
	.uleb128 0
	.uleb128 .LEHB30-.LFB8096
	.uleb128 .LEHE30-.LEHB30
	.uleb128 .L188-.LFB8096
	.uleb128 0
	.uleb128 .LEHB31-.LFB8096
	.uleb128 .LEHE31-.LEHB31
	.uleb128 .L190-.LFB8096
	.uleb128 0
	.uleb128 .LEHB32-.LFB8096
	.uleb128 .LEHE32-.LEHB32
	.uleb128 .L191-.LFB8096
	.uleb128 0
	.uleb128 .LEHB33-.LFB8096
	.uleb128 .LEHE33-.LEHB33
	.uleb128 .L192-.LFB8096
	.uleb128 0
	.uleb128 .LEHB34-.LFB8096
	.uleb128 .LEHE34-.LEHB34
	.uleb128 .L191-.LFB8096
	.uleb128 0
	.uleb128 .LEHB35-.LFB8096
	.uleb128 .LEHE35-.LEHB35
	.uleb128 .L193-.LFB8096
	.uleb128 0
	.uleb128 .LEHB36-.LFB8096
	.uleb128 .LEHE36-.LEHB36
	.uleb128 .L194-.LFB8096
	.uleb128 0
	.uleb128 .LEHB37-.LFB8096
	.uleb128 .LEHE37-.LEHB37
	.uleb128 .L195-.LFB8096
	.uleb128 0
	.uleb128 .LEHB38-.LFB8096
	.uleb128 .LEHE38-.LEHB38
	.uleb128 .L193-.LFB8096
	.uleb128 0
	.uleb128 .LEHB39-.LFB8096
	.uleb128 .LEHE39-.LEHB39
	.uleb128 .L196-.LFB8096
	.uleb128 0
	.uleb128 .LEHB40-.LFB8096
	.uleb128 .LEHE40-.LEHB40
	.uleb128 .L193-.LFB8096
	.uleb128 0
	.uleb128 .LEHB41-.LFB8096
	.uleb128 .LEHE41-.LEHB41
	.uleb128 .L187-.LFB8096
	.uleb128 0
	.uleb128 .LEHB42-.LFB8096
	.uleb128 .LEHE42-.LEHB42
	.uleb128 0
	.uleb128 0
.LLSDACSE8096:
	.text
	.size	_Z20expansionIncludeFileRSt6vectorINSt7__cxx1112basic_stringIDsSt11char_traitsIDsESaIDsEEESaIS5_EE, .-_Z20expansionIncludeFileRSt6vectorINSt7__cxx1112basic_stringIDsSt11char_traitsIDsESaIDsEEESaIS5_EE
	.section	.rodata
.LC6:
	.string	"\347\250\213\345\272\217\346\234\211\351\224\231"
	.text
	.globl	_Z25secondToRemoveExplabationRSt6vectorINSt7__cxx1112basic_stringIDsSt11char_traitsIDsESaIDsEEESaIS5_EE
	.type	_Z25secondToRemoveExplabationRSt6vectorINSt7__cxx1112basic_stringIDsSt11char_traitsIDsESaIDsEEESaIS5_EE, @function
_Z25secondToRemoveExplabationRSt6vectorINSt7__cxx1112basic_stringIDsSt11char_traitsIDsESaIDsEEESaIS5_EE:
.LFB8100:
	.cfi_startproc
	.cfi_personality 0x3,__gxx_personality_v0
	.cfi_lsda 0x3,.LLSDA8100
	pushq	%rbp
	.cfi_def_cfa_offset 16
	.cfi_offset 6, -16
	movq	%rsp, %rbp
	.cfi_def_cfa_register 6
	pushq	%rbx
	subq	$200, %rsp
	.cfi_offset 3, -24
	movq	%rdi, -200(%rbp)
	movq	%rsi, -208(%rbp)
	movq	%fs:40, %rax
	movq	%rax, -24(%rbp)
	xorl	%eax, %eax
	movq	-200(%rbp), %rax
	movq	%rax, %rdi
	call	_ZNSt6vectorINSt7__cxx1112basic_stringIDsSt11char_traitsIDsESaIDsEEESaIS5_EEC1Ev
	movq	-208(%rbp), %rax
	movq	%rax, -112(%rbp)
	movq	-112(%rbp), %rax
	movq	%rax, %rdi
	call	_ZNSt6vectorINSt7__cxx1112basic_stringIDsSt11char_traitsIDsESaIDsEEESaIS5_EE5beginEv
	movq	%rax, -176(%rbp)
	movq	-112(%rbp), %rax
	movq	%rax, %rdi
	call	_ZNSt6vectorINSt7__cxx1112basic_stringIDsSt11char_traitsIDsESaIDsEEESaIS5_EE3endEv
	movq	%rax, -160(%rbp)
.L210:
	leaq	-160(%rbp), %rdx
	leaq	-176(%rbp), %rax
	movq	%rdx, %rsi
	movq	%rax, %rdi
	call	_ZN9__gnu_cxxneIPNSt7__cxx1112basic_stringIDsSt11char_traitsIDsESaIDsEEESt6vectorIS6_SaIS6_EEEEbRKNS_17__normal_iteratorIT_T0_EESG_
	testb	%al, %al
	je	.L217
	leaq	-176(%rbp), %rax
	movq	%rax, %rdi
	call	_ZNK9__gnu_cxx17__normal_iteratorIPNSt7__cxx1112basic_stringIDsSt11char_traitsIDsESaIDsEEESt6vectorIS6_SaIS6_EEEdeEv
	movq	%rax, %rdx
	leaq	-96(%rbp), %rax
	movq	%rdx, %rsi
	movq	%rax, %rdi
.LEHB43:
	call	_ZNSt7__cxx1112basic_stringIDsSt11char_traitsIDsESaIDsEEC1ERKS4_
.LEHE43:
	leaq	-64(%rbp), %rax
	movq	%rax, %rdi
	call	_ZNSt7__cxx1112basic_stringIDsSt11char_traitsIDsESaIDsEEC1Ev
	leaq	-96(%rbp), %rax
	movq	%rax, -104(%rbp)
	movq	-104(%rbp), %rax
	movq	%rax, %rdi
	call	_ZNSt7__cxx1112basic_stringIDsSt11char_traitsIDsESaIDsEE5beginEv
	movq	%rax, -144(%rbp)
	movq	-104(%rbp), %rax
	movq	%rax, %rdi
	call	_ZNSt7__cxx1112basic_stringIDsSt11char_traitsIDsESaIDsEE3endEv
	movq	%rax, -128(%rbp)
.L209:
	leaq	-128(%rbp), %rdx
	leaq	-144(%rbp), %rax
	movq	%rdx, %rsi
	movq	%rax, %rdi
	call	_ZN9__gnu_cxxneIPDsNSt7__cxx1112basic_stringIDsSt11char_traitsIDsESaIDsEEEEEbRKNS_17__normal_iteratorIT_T0_EESD_
	testb	%al, %al
	je	.L200
	leaq	-144(%rbp), %rax
	movq	%rax, %rdi
	call	_ZNK9__gnu_cxx17__normal_iteratorIPDsNSt7__cxx1112basic_stringIDsSt11char_traitsIDsESaIDsEEEEdeEv
	movzwl	(%rax), %eax
	movw	%ax, -178(%rbp)
	cmpw	$47, -178(%rbp)
	je	.L201
	movzwl	-178(%rbp), %edx
	leaq	-64(%rbp), %rax
	movl	%edx, %esi
	movq	%rax, %rdi
.LEHB44:
	call	_ZNSt7__cxx1112basic_stringIDsSt11char_traitsIDsESaIDsEEpLEDs
	jmp	.L202
.L201:
	leaq	-64(%rbp), %rax
	movq	%rax, %rdi
	call	_ZNKSt7__cxx1112basic_stringIDsSt11char_traitsIDsESaIDsEE4sizeEv
	leaq	-1(%rax), %rdx
	leaq	-96(%rbp), %rax
	movq	%rdx, %rsi
	movq	%rax, %rdi
	call	_ZNSt7__cxx1112basic_stringIDsSt11char_traitsIDsESaIDsEEixEm
	movzwl	(%rax), %eax
	cmpw	$34, %ax
	je	.L203
	leaq	-64(%rbp), %rax
	movq	%rax, %rdi
	call	_ZNKSt7__cxx1112basic_stringIDsSt11char_traitsIDsESaIDsEE4sizeEv
	leaq	1(%rax), %rdx
	leaq	-96(%rbp), %rax
	movq	%rdx, %rsi
	movq	%rax, %rdi
	call	_ZNSt7__cxx1112basic_stringIDsSt11char_traitsIDsESaIDsEEixEm
	movzwl	(%rax), %eax
	cmpw	$47, %ax
	jne	.L203
	movl	$1, %eax
	jmp	.L204
.L203:
	movl	$0, %eax
.L204:
	testb	%al, %al
	jne	.L218
	leaq	-64(%rbp), %rax
	movq	%rax, %rdi
	call	_ZNKSt7__cxx1112basic_stringIDsSt11char_traitsIDsESaIDsEE4sizeEv
	leaq	-1(%rax), %rdx
	leaq	-96(%rbp), %rax
	movq	%rdx, %rsi
	movq	%rax, %rdi
	call	_ZNSt7__cxx1112basic_stringIDsSt11char_traitsIDsESaIDsEEixEm
	movzwl	(%rax), %eax
	cmpw	$34, %ax
	je	.L206
	leaq	-64(%rbp), %rax
	movq	%rax, %rdi
	call	_ZNKSt7__cxx1112basic_stringIDsSt11char_traitsIDsESaIDsEE4sizeEv
	leaq	1(%rax), %rdx
	leaq	-96(%rbp), %rax
	movq	%rdx, %rsi
	movq	%rax, %rdi
	call	_ZNSt7__cxx1112basic_stringIDsSt11char_traitsIDsESaIDsEEixEm
	movzwl	(%rax), %eax
	cmpw	$47, %ax
	je	.L206
	leaq	-64(%rbp), %rax
	movq	%rax, %rdi
	call	_ZNKSt7__cxx1112basic_stringIDsSt11char_traitsIDsESaIDsEE4sizeEv
	leaq	-1(%rax), %rdx
	leaq	-96(%rbp), %rax
	movq	%rdx, %rsi
	movq	%rax, %rdi
	call	_ZNSt7__cxx1112basic_stringIDsSt11char_traitsIDsESaIDsEEixEm
	movzwl	(%rax), %eax
	cmpw	$47, %ax
	je	.L206
	movl	$1, %eax
	jmp	.L207
.L206:
	movl	$0, %eax
.L207:
	testb	%al, %al
	je	.L208
	leaq	-64(%rbp), %rax
	movq	%rax, %rdi
	call	_ZNKSt7__cxx1112basic_stringIDsSt11char_traitsIDsESaIDsEE4sizeEv
	leaq	1(%rax), %rdx
	leaq	-96(%rbp), %rax
	movq	%rdx, %rsi
	movq	%rax, %rdi
	call	_ZNSt7__cxx1112basic_stringIDsSt11char_traitsIDsESaIDsEEixEm
	movzwl	(%rax), %eax
	cmpw	$42, %ax
	setne	%al
	testb	%al, %al
	je	.L202
	movl	$.LC6, %esi
	movl	$_ZSt4cout, %edi
	call	_ZStlsISt11char_traitsIcEERSt13basic_ostreamIcT_ES5_PKc
	movl	$_ZSt4endlIcSt11char_traitsIcEERSt13basic_ostreamIT_T0_ES6_, %esi
	movq	%rax, %rdi
	call	_ZNSolsEPFRSoS_E
	movzwl	-178(%rbp), %edx
	leaq	-64(%rbp), %rax
	movl	%edx, %esi
	movq	%rax, %rdi
	call	_ZNSt7__cxx1112basic_stringIDsSt11char_traitsIDsESaIDsEEpLEDs
	jmp	.L202
.L208:
	movzwl	-178(%rbp), %edx
	leaq	-64(%rbp), %rax
	movl	%edx, %esi
	movq	%rax, %rdi
	call	_ZNSt7__cxx1112basic_stringIDsSt11char_traitsIDsESaIDsEEpLEDs
.L202:
	leaq	-144(%rbp), %rax
	movq	%rax, %rdi
	call	_ZN9__gnu_cxx17__normal_iteratorIPDsNSt7__cxx1112basic_stringIDsSt11char_traitsIDsESaIDsEEEEppEv
	jmp	.L209
.L218:
	nop
.L200:
	leaq	-64(%rbp), %rdx
	movq	-200(%rbp), %rax
	movq	%rdx, %rsi
	movq	%rax, %rdi
	call	_ZNSt6vectorINSt7__cxx1112basic_stringIDsSt11char_traitsIDsESaIDsEEESaIS5_EE9push_backERKS5_
.LEHE44:
	leaq	-64(%rbp), %rax
	movq	%rax, %rdi
	call	_ZNSt7__cxx1112basic_stringIDsSt11char_traitsIDsESaIDsEED1Ev
	leaq	-96(%rbp), %rax
	movq	%rax, %rdi
	call	_ZNSt7__cxx1112basic_stringIDsSt11char_traitsIDsESaIDsEED1Ev
	leaq	-176(%rbp), %rax
	movq	%rax, %rdi
	call	_ZN9__gnu_cxx17__normal_iteratorIPNSt7__cxx1112basic_stringIDsSt11char_traitsIDsESaIDsEEESt6vectorIS6_SaIS6_EEEppEv
	jmp	.L210
.L216:
	movq	%rax, %rbx
	leaq	-64(%rbp), %rax
	movq	%rax, %rdi
	call	_ZNSt7__cxx1112basic_stringIDsSt11char_traitsIDsESaIDsEED1Ev
	leaq	-96(%rbp), %rax
	movq	%rax, %rdi
	call	_ZNSt7__cxx1112basic_stringIDsSt11char_traitsIDsESaIDsEED1Ev
	movq	%rbx, %rax
	jmp	.L213
.L215:
.L213:
	movq	%rax, %rbx
	movq	-200(%rbp), %rax
	movq	%rax, %rdi
	call	_ZNSt6vectorINSt7__cxx1112basic_stringIDsSt11char_traitsIDsESaIDsEEESaIS5_EED1Ev
	movq	%rbx, %rax
	movq	%rax, %rdi
.LEHB45:
	call	_Unwind_Resume
.LEHE45:
.L217:
	nop
	movq	-200(%rbp), %rax
	movq	-24(%rbp), %rcx
	xorq	%fs:40, %rcx
	je	.L214
	call	__stack_chk_fail
.L214:
	addq	$200, %rsp
	popq	%rbx
	popq	%rbp
	.cfi_def_cfa 7, 8
	ret
	.cfi_endproc
.LFE8100:
	.section	.gcc_except_table
.LLSDA8100:
	.byte	0xff
	.byte	0xff
	.byte	0x1
	.uleb128 .LLSDACSE8100-.LLSDACSB8100
.LLSDACSB8100:
	.uleb128 .LEHB43-.LFB8100
	.uleb128 .LEHE43-.LEHB43
	.uleb128 .L215-.LFB8100
	.uleb128 0
	.uleb128 .LEHB44-.LFB8100
	.uleb128 .LEHE44-.LEHB44
	.uleb128 .L216-.LFB8100
	.uleb128 0
	.uleb128 .LEHB45-.LFB8100
	.uleb128 .LEHE45-.LEHB45
	.uleb128 0
	.uleb128 0
.LLSDACSE8100:
	.text
	.size	_Z25secondToRemoveExplabationRSt6vectorINSt7__cxx1112basic_stringIDsSt11char_traitsIDsESaIDsEEESaIS5_EE, .-_Z25secondToRemoveExplabationRSt6vectorINSt7__cxx1112basic_stringIDsSt11char_traitsIDsESaIDsEEESaIS5_EE
	.globl	_Z17removeExplabationRSt6vectorINSt7__cxx1112basic_stringIDsSt11char_traitsIDsESaIDsEEESaIS5_EE
	.type	_Z17removeExplabationRSt6vectorINSt7__cxx1112basic_stringIDsSt11char_traitsIDsESaIDsEEESaIS5_EE, @function
_Z17removeExplabationRSt6vectorINSt7__cxx1112basic_stringIDsSt11char_traitsIDsESaIDsEEESaIS5_EE:
.LFB8101:
	.cfi_startproc
	.cfi_personality 0x3,__gxx_personality_v0
	.cfi_lsda 0x3,.LLSDA8101
	pushq	%rbp
	.cfi_def_cfa_offset 16
	.cfi_offset 6, -16
	movq	%rsp, %rbp
	.cfi_def_cfa_register 6
	pushq	%rbx
	subq	$264, %rsp
	.cfi_offset 3, -24
	movq	%rdi, -264(%rbp)
	movq	%rsi, -272(%rbp)
	movq	%fs:40, %rax
	movq	%rax, -24(%rbp)
	xorl	%eax, %eax
	movq	-264(%rbp), %rax
	movq	%rax, %rdi
	call	_ZNSt6vectorINSt7__cxx1112basic_stringIDsSt11char_traitsIDsESaIDsEEESaIS5_EEC1Ev
	leaq	-192(%rbp), %rax
	movq	%rax, %rdi
	call	_ZNSt6vectorINSt7__cxx1112basic_stringIDsSt11char_traitsIDsESaIDsEEESaIS5_EEC1Ev
	movl	$1, -244(%rbp)
	leaq	-160(%rbp), %rax
	movq	-272(%rbp), %rdx
	movq	%rdx, %rsi
	movq	%rax, %rdi
.LEHB46:
	call	_Z13getIsSharpRowRSt6vectorINSt7__cxx1112basic_stringIDsSt11char_traitsIDsESaIDsEEESaIS5_EE
	leaq	-160(%rbp), %rdx
	leaq	-192(%rbp), %rax
	movq	%rdx, %rsi
	movq	%rax, %rdi
	call	_ZNSt6vectorINSt7__cxx1112basic_stringIDsSt11char_traitsIDsESaIDsEEESaIS5_EEaSEOS7_
	leaq	-160(%rbp), %rax
	movq	%rax, %rdi
	call	_ZNSt6vectorINSt7__cxx1112basic_stringIDsSt11char_traitsIDsESaIDsEEESaIS5_EED1Ev
	leaq	-192(%rbp), %rax
	movq	%rax, %rdi
	call	_Z10isMatchingRSt6vectorINSt7__cxx1112basic_stringIDsSt11char_traitsIDsESaIDsEEESaIS5_EE
.LEHE46:
	movq	-272(%rbp), %rax
	movq	%rax, -208(%rbp)
	movq	-208(%rbp), %rax
	movq	%rax, %rdi
	call	_ZNSt6vectorINSt7__cxx1112basic_stringIDsSt11char_traitsIDsESaIDsEEESaIS5_EE5beginEv
	movq	%rax, -240(%rbp)
	movq	-208(%rbp), %rax
	movq	%rax, %rdi
	call	_ZNSt6vectorINSt7__cxx1112basic_stringIDsSt11char_traitsIDsESaIDsEEESaIS5_EE3endEv
	movq	%rax, -224(%rbp)
.L232:
	leaq	-224(%rbp), %rdx
	leaq	-240(%rbp), %rax
	movq	%rdx, %rsi
	movq	%rax, %rdi
	call	_ZN9__gnu_cxxneIPNSt7__cxx1112basic_stringIDsSt11char_traitsIDsESaIDsEEESt6vectorIS6_SaIS6_EEEEbRKNS_17__normal_iteratorIT_T0_EESG_
	testb	%al, %al
	je	.L220
	leaq	-240(%rbp), %rax
	movq	%rax, %rdi
	call	_ZNK9__gnu_cxx17__normal_iteratorIPNSt7__cxx1112basic_stringIDsSt11char_traitsIDsESaIDsEEESt6vectorIS6_SaIS6_EEEdeEv
	movq	%rax, %rdx
	leaq	-96(%rbp), %rax
	movq	%rdx, %rsi
	movq	%rax, %rdi
.LEHB47:
	call	_ZNSt7__cxx1112basic_stringIDsSt11char_traitsIDsESaIDsEEC1ERKS4_
.LEHE47:
	leaq	-64(%rbp), %rax
	movq	%rax, %rdi
	call	_ZNSt7__cxx1112basic_stringIDsSt11char_traitsIDsESaIDsEEC1Ev
	leaq	-96(%rbp), %rax
	movq	%rax, -200(%rbp)
	movq	-200(%rbp), %rax
	movq	%rax, %rdi
	call	_ZNSt7__cxx1112basic_stringIDsSt11char_traitsIDsESaIDsEE5beginEv
	movq	%rax, -160(%rbp)
	movq	-200(%rbp), %rax
	movq	%rax, %rdi
	call	_ZNSt7__cxx1112basic_stringIDsSt11char_traitsIDsESaIDsEE3endEv
	movq	%rax, -128(%rbp)
.L231:
	leaq	-128(%rbp), %rdx
	leaq	-160(%rbp), %rax
	movq	%rdx, %rsi
	movq	%rax, %rdi
	call	_ZN9__gnu_cxxneIPDsNSt7__cxx1112basic_stringIDsSt11char_traitsIDsESaIDsEEEEEbRKNS_17__normal_iteratorIT_T0_EESD_
	testb	%al, %al
	je	.L221
	leaq	-160(%rbp), %rax
	movq	%rax, %rdi
	call	_ZNK9__gnu_cxx17__normal_iteratorIPDsNSt7__cxx1112basic_stringIDsSt11char_traitsIDsESaIDsEEEEdeEv
	movzwl	(%rax), %eax
	movw	%ax, -246(%rbp)
	cmpl	$1, -244(%rbp)
	jne	.L222
	cmpw	$47, -246(%rbp)
	jne	.L223
	leaq	-64(%rbp), %rax
	movq	%rax, %rdi
	call	_ZNKSt7__cxx1112basic_stringIDsSt11char_traitsIDsESaIDsEE4sizeEv
	leaq	1(%rax), %rdx
	leaq	-96(%rbp), %rax
	movq	%rdx, %rsi
	movq	%rax, %rdi
.LEHB48:
	call	_ZNSt7__cxx1112basic_stringIDsSt11char_traitsIDsESaIDsEEixEm
	movzwl	(%rax), %eax
	cmpw	$42, %ax
	jne	.L223
	movl	$1, %eax
	jmp	.L224
.L223:
	movl	$0, %eax
.L224:
	testb	%al, %al
	je	.L225
	movl	$2, -244(%rbp)
	jmp	.L226
.L225:
	movzwl	-246(%rbp), %edx
	leaq	-64(%rbp), %rax
	movl	%edx, %esi
	movq	%rax, %rdi
	call	_ZNSt7__cxx1112basic_stringIDsSt11char_traitsIDsESaIDsEEpLEDs
	jmp	.L226
.L222:
	cmpl	$2, -244(%rbp)
	je	.L227
	cmpl	$3, -244(%rbp)
	jne	.L226
.L227:
	cmpw	$42, -246(%rbp)
	jne	.L228
	movl	$3, -244(%rbp)
	jmp	.L226
.L228:
	cmpl	$3, -244(%rbp)
	jne	.L226
	cmpw	$47, -246(%rbp)
	jne	.L229
	movl	$1, -244(%rbp)
	jmp	.L226
.L229:
	movl	$2, -244(%rbp)
.L226:
	leaq	-160(%rbp), %rax
	movq	%rax, %rdi
	call	_ZN9__gnu_cxx17__normal_iteratorIPDsNSt7__cxx1112basic_stringIDsSt11char_traitsIDsESaIDsEEEEppEv
	jmp	.L231
.L221:
	leaq	-64(%rbp), %rdx
	movq	-264(%rbp), %rax
	movq	%rdx, %rsi
	movq	%rax, %rdi
	call	_ZNSt6vectorINSt7__cxx1112basic_stringIDsSt11char_traitsIDsESaIDsEEESaIS5_EE9push_backERKS5_
.LEHE48:
	leaq	-64(%rbp), %rax
	movq	%rax, %rdi
	call	_ZNSt7__cxx1112basic_stringIDsSt11char_traitsIDsESaIDsEED1Ev
	leaq	-96(%rbp), %rax
	movq	%rax, %rdi
	call	_ZNSt7__cxx1112basic_stringIDsSt11char_traitsIDsESaIDsEED1Ev
	leaq	-240(%rbp), %rax
	movq	%rax, %rdi
	call	_ZN9__gnu_cxx17__normal_iteratorIPNSt7__cxx1112basic_stringIDsSt11char_traitsIDsESaIDsEEESt6vectorIS6_SaIS6_EEEppEv
	jmp	.L232
.L220:
	leaq	-128(%rbp), %rax
	movq	-264(%rbp), %rdx
	movq	%rdx, %rsi
	movq	%rax, %rdi
.LEHB49:
	call	_Z25secondToRemoveExplabationRSt6vectorINSt7__cxx1112basic_stringIDsSt11char_traitsIDsESaIDsEEESaIS5_EE
.LEHE49:
	leaq	-128(%rbp), %rdx
	movq	-264(%rbp), %rax
	movq	%rdx, %rsi
	movq	%rax, %rdi
	call	_ZNSt6vectorINSt7__cxx1112basic_stringIDsSt11char_traitsIDsESaIDsEEESaIS5_EEaSEOS7_
	leaq	-128(%rbp), %rax
	movq	%rax, %rdi
	call	_ZNSt6vectorINSt7__cxx1112basic_stringIDsSt11char_traitsIDsESaIDsEEESaIS5_EED1Ev
	nop
	leaq	-192(%rbp), %rax
	movq	%rax, %rdi
	call	_ZNSt6vectorINSt7__cxx1112basic_stringIDsSt11char_traitsIDsESaIDsEEESaIS5_EED1Ev
	nop
	movq	-264(%rbp), %rax
	movq	-24(%rbp), %rcx
	xorq	%fs:40, %rcx
	je	.L237
	jmp	.L241
.L240:
	movq	%rax, %rbx
	leaq	-64(%rbp), %rax
	movq	%rax, %rdi
	call	_ZNSt7__cxx1112basic_stringIDsSt11char_traitsIDsESaIDsEED1Ev
	leaq	-96(%rbp), %rax
	movq	%rax, %rdi
	call	_ZNSt7__cxx1112basic_stringIDsSt11char_traitsIDsESaIDsEED1Ev
	movq	%rbx, %rax
	jmp	.L235
.L239:
.L235:
	movq	%rax, %rbx
	jmp	.L236
.L238:
	movq	%rax, %rbx
.L236:
	leaq	-192(%rbp), %rax
	movq	%rax, %rdi
	call	_ZNSt6vectorINSt7__cxx1112basic_stringIDsSt11char_traitsIDsESaIDsEEESaIS5_EED1Ev
	movq	-264(%rbp), %rax
	movq	%rax, %rdi
	call	_ZNSt6vectorINSt7__cxx1112basic_stringIDsSt11char_traitsIDsESaIDsEEESaIS5_EED1Ev
	movq	%rbx, %rax
	movq	%rax, %rdi
.LEHB50:
	call	_Unwind_Resume
.LEHE50:
.L241:
	call	__stack_chk_fail
.L237:
	addq	$264, %rsp
	popq	%rbx
	popq	%rbp
	.cfi_def_cfa 7, 8
	ret
	.cfi_endproc
.LFE8101:
	.section	.gcc_except_table
.LLSDA8101:
	.byte	0xff
	.byte	0xff
	.byte	0x1
	.uleb128 .LLSDACSE8101-.LLSDACSB8101
.LLSDACSB8101:
	.uleb128 .LEHB46-.LFB8101
	.uleb128 .LEHE46-.LEHB46
	.uleb128 .L238-.LFB8101
	.uleb128 0
	.uleb128 .LEHB47-.LFB8101
	.uleb128 .LEHE47-.LEHB47
	.uleb128 .L239-.LFB8101
	.uleb128 0
	.uleb128 .LEHB48-.LFB8101
	.uleb128 .LEHE48-.LEHB48
	.uleb128 .L240-.LFB8101
	.uleb128 0
	.uleb128 .LEHB49-.LFB8101
	.uleb128 .LEHE49-.LEHB49
	.uleb128 .L238-.LFB8101
	.uleb128 0
	.uleb128 .LEHB50-.LFB8101
	.uleb128 .LEHE50-.LEHB50
	.uleb128 0
	.uleb128 0
.LLSDACSE8101:
	.text
	.size	_Z17removeExplabationRSt6vectorINSt7__cxx1112basic_stringIDsSt11char_traitsIDsESaIDsEEESaIS5_EE, .-_Z17removeExplabationRSt6vectorINSt7__cxx1112basic_stringIDsSt11char_traitsIDsESaIDsEEESaIS5_EE
	.section	.rodata
	.align 2
.LC7:
	.string	"#"
	.string	"d"
	.string	"e"
	.string	"f"
	.string	"i"
	.string	"n"
	.string	"e"
	.string	""
	.string	""
	.align 2
.LC8:
	.string	"i"
	.string	"f"
	.string	"n"
	.string	"d"
	.string	"e"
	.string	"f"
	.string	""
	.string	""
	.text
	.globl	_Z15toFindDefineRowRSt6vectorINSt7__cxx1112basic_stringIDsSt11char_traitsIDsESaIDsEEESaIS5_EE
	.type	_Z15toFindDefineRowRSt6vectorINSt7__cxx1112basic_stringIDsSt11char_traitsIDsESaIDsEEESaIS5_EE, @function
_Z15toFindDefineRowRSt6vectorINSt7__cxx1112basic_stringIDsSt11char_traitsIDsESaIDsEEESaIS5_EE:
.LFB8102:
	.cfi_startproc
	.cfi_personality 0x3,__gxx_personality_v0
	.cfi_lsda 0x3,.LLSDA8102
	pushq	%rbp
	.cfi_def_cfa_offset 16
	.cfi_offset 6, -16
	movq	%rsp, %rbp
	.cfi_def_cfa_register 6
	pushq	%rbx
	subq	$168, %rsp
	.cfi_offset 3, -24
	movq	%rdi, -168(%rbp)
	movq	%fs:40, %rax
	movq	%rax, -24(%rbp)
	xorl	%eax, %eax
	movl	$1, -148(%rbp)
	leaq	-128(%rbp), %rax
	movq	%rax, %rdi
	call	_ZNSt6vectorINSt7__cxx1112basic_stringIDsSt11char_traitsIDsESaIDsEEESaIS5_EEC1Ev
	leaq	-96(%rbp), %rax
	movq	-168(%rbp), %rdx
	movq	%rdx, %rsi
	movq	%rax, %rdi
.LEHB51:
	call	_Z13getIsSharpRowRSt6vectorINSt7__cxx1112basic_stringIDsSt11char_traitsIDsESaIDsEEESaIS5_EE
	leaq	-96(%rbp), %rdx
	leaq	-128(%rbp), %rax
	movq	%rdx, %rsi
	movq	%rax, %rdi
	call	_ZNSt6vectorINSt7__cxx1112basic_stringIDsSt11char_traitsIDsESaIDsEEESaIS5_EEaSEOS7_
	leaq	-96(%rbp), %rax
	movq	%rax, %rdi
	call	_ZNSt6vectorINSt7__cxx1112basic_stringIDsSt11char_traitsIDsESaIDsEEESaIS5_EED1Ev
	leaq	-128(%rbp), %rax
	movq	%rax, -136(%rbp)
	movq	-136(%rbp), %rax
	movq	%rax, %rdi
	call	_ZNSt6vectorINSt7__cxx1112basic_stringIDsSt11char_traitsIDsESaIDsEEESaIS5_EE5beginEv
	movq	%rax, -144(%rbp)
	movq	-136(%rbp), %rax
	movq	%rax, %rdi
	call	_ZNSt6vectorINSt7__cxx1112basic_stringIDsSt11char_traitsIDsESaIDsEEESaIS5_EE3endEv
	movq	%rax, -96(%rbp)
.L250:
	leaq	-96(%rbp), %rdx
	leaq	-144(%rbp), %rax
	movq	%rdx, %rsi
	movq	%rax, %rdi
	call	_ZN9__gnu_cxxneIPNSt7__cxx1112basic_stringIDsSt11char_traitsIDsESaIDsEEESt6vectorIS6_SaIS6_EEEEbRKNS_17__normal_iteratorIT_T0_EESG_
	testb	%al, %al
	je	.L243
	leaq	-144(%rbp), %rax
	movq	%rax, %rdi
	call	_ZNK9__gnu_cxx17__normal_iteratorIPNSt7__cxx1112basic_stringIDsSt11char_traitsIDsESaIDsEEESt6vectorIS6_SaIS6_EEEdeEv
	movq	%rax, %rdx
	leaq	-64(%rbp), %rax
	movq	%rdx, %rsi
	movq	%rax, %rdi
	call	_ZNSt7__cxx1112basic_stringIDsSt11char_traitsIDsESaIDsEEC1ERKS4_
.LEHE51:
	leaq	-64(%rbp), %rax
	movl	$.LC7, %esi
	movq	%rax, %rdi
.LEHB52:
	call	_ZSteqIDsSt11char_traitsIDsESaIDsEEbRKNSt7__cxx1112basic_stringIT_T0_T1_EEPKS5_
	testb	%al, %al
	jne	.L244
	leaq	-64(%rbp), %rax
	movl	$.LC0, %esi
	movq	%rax, %rdi
	call	_ZSteqIDsSt11char_traitsIDsESaIDsEEbRKNSt7__cxx1112basic_stringIT_T0_T1_EEPKS5_
	testb	%al, %al
	jne	.L244
	leaq	-64(%rbp), %rax
	movl	$.LC8, %esi
	movq	%rax, %rdi
	call	_ZSteqIDsSt11char_traitsIDsESaIDsEEbRKNSt7__cxx1112basic_stringIT_T0_T1_EEPKS5_
.LEHE52:
	testb	%al, %al
	je	.L245
.L244:
	movl	$1, %eax
	jmp	.L246
.L245:
	movl	$0, %eax
.L246:
	testb	%al, %al
	je	.L247
	movl	$0, %ebx
	jmp	.L248
.L247:
	addl	$1, -148(%rbp)
	movl	$1, %ebx
.L248:
	leaq	-64(%rbp), %rax
	movq	%rax, %rdi
	call	_ZNSt7__cxx1112basic_stringIDsSt11char_traitsIDsESaIDsEED1Ev
	cmpl	$1, %ebx
	jne	.L243
	nop
	leaq	-144(%rbp), %rax
	movq	%rax, %rdi
	call	_ZN9__gnu_cxx17__normal_iteratorIPNSt7__cxx1112basic_stringIDsSt11char_traitsIDsESaIDsEEESt6vectorIS6_SaIS6_EEEppEv
	jmp	.L250
.L243:
	movl	-148(%rbp), %ebx
	leaq	-128(%rbp), %rax
	movq	%rax, %rdi
	call	_ZNSt6vectorINSt7__cxx1112basic_stringIDsSt11char_traitsIDsESaIDsEEESaIS5_EED1Ev
	movl	%ebx, %eax
	movq	-24(%rbp), %rcx
	xorq	%fs:40, %rcx
	je	.L254
	jmp	.L258
.L256:
	movq	%rax, %rbx
	leaq	-64(%rbp), %rax
	movq	%rax, %rdi
	call	_ZNSt7__cxx1112basic_stringIDsSt11char_traitsIDsESaIDsEED1Ev
	jmp	.L253
.L255:
	movq	%rax, %rbx
.L253:
	leaq	-128(%rbp), %rax
	movq	%rax, %rdi
	call	_ZNSt6vectorINSt7__cxx1112basic_stringIDsSt11char_traitsIDsESaIDsEEESaIS5_EED1Ev
	movq	%rbx, %rax
	movq	%rax, %rdi
.LEHB53:
	call	_Unwind_Resume
.LEHE53:
.L258:
	call	__stack_chk_fail
.L254:
	addq	$168, %rsp
	popq	%rbx
	popq	%rbp
	.cfi_def_cfa 7, 8
	ret
	.cfi_endproc
.LFE8102:
	.section	.gcc_except_table
.LLSDA8102:
	.byte	0xff
	.byte	0xff
	.byte	0x1
	.uleb128 .LLSDACSE8102-.LLSDACSB8102
.LLSDACSB8102:
	.uleb128 .LEHB51-.LFB8102
	.uleb128 .LEHE51-.LEHB51
	.uleb128 .L255-.LFB8102
	.uleb128 0
	.uleb128 .LEHB52-.LFB8102
	.uleb128 .LEHE52-.LEHB52
	.uleb128 .L256-.LFB8102
	.uleb128 0
	.uleb128 .LEHB53-.LFB8102
	.uleb128 .LEHE53-.LEHB53
	.uleb128 0
	.uleb128 0
.LLSDACSE8102:
	.text
	.size	_Z15toFindDefineRowRSt6vectorINSt7__cxx1112basic_stringIDsSt11char_traitsIDsESaIDsEEESaIS5_EE, .-_Z15toFindDefineRowRSt6vectorINSt7__cxx1112basic_stringIDsSt11char_traitsIDsESaIDsEEESaIS5_EE
	.globl	_Z18getRelationContentRSt6vectorINSt7__cxx1112basic_stringIDsSt11char_traitsIDsESaIDsEEESaIS5_EE
	.type	_Z18getRelationContentRSt6vectorINSt7__cxx1112basic_stringIDsSt11char_traitsIDsESaIDsEEESaIS5_EE, @function
_Z18getRelationContentRSt6vectorINSt7__cxx1112basic_stringIDsSt11char_traitsIDsESaIDsEEESaIS5_EE:
.LFB8103:
	.cfi_startproc
	.cfi_personality 0x3,__gxx_personality_v0
	.cfi_lsda 0x3,.LLSDA8103
	pushq	%rbp
	.cfi_def_cfa_offset 16
	.cfi_offset 6, -16
	movq	%rsp, %rbp
	.cfi_def_cfa_register 6
	pushq	%rbx
	subq	$200, %rsp
	.cfi_offset 3, -24
	movq	%rdi, -200(%rbp)
	movq	%fs:40, %rax
	movq	%rax, -24(%rbp)
	xorl	%eax, %eax
	movq	-200(%rbp), %rax
	movq	%rax, %rdi
.LEHB54:
	call	_Z15toFindDefineRowRSt6vectorINSt7__cxx1112basic_stringIDsSt11char_traitsIDsESaIDsEEESaIS5_EE
.LEHE54:
	movl	%eax, -180(%rbp)
	leaq	-96(%rbp), %rax
	movq	%rax, %rdi
	call	_ZNSt7__cxx1112basic_stringIDsSt11char_traitsIDsESaIDsEEC1Ev
	cmpl	$0, -180(%rbp)
	je	.L260
	movq	-200(%rbp), %rax
	movq	%rax, -112(%rbp)
	movq	-112(%rbp), %rax
	movq	%rax, %rdi
	call	_ZNSt6vectorINSt7__cxx1112basic_stringIDsSt11char_traitsIDsESaIDsEEESaIS5_EE5beginEv
	movq	%rax, -176(%rbp)
	movq	-112(%rbp), %rax
	movq	%rax, %rdi
	call	_ZNSt6vectorINSt7__cxx1112basic_stringIDsSt11char_traitsIDsESaIDsEEESaIS5_EE3endEv
	movq	%rax, -160(%rbp)
.L271:
	leaq	-160(%rbp), %rdx
	leaq	-176(%rbp), %rax
	movq	%rdx, %rsi
	movq	%rax, %rdi
	call	_ZN9__gnu_cxxneIPNSt7__cxx1112basic_stringIDsSt11char_traitsIDsESaIDsEEESt6vectorIS6_SaIS6_EEEEbRKNS_17__normal_iteratorIT_T0_EESG_
	testb	%al, %al
	je	.L261
	leaq	-176(%rbp), %rax
	movq	%rax, %rdi
	call	_ZNK9__gnu_cxx17__normal_iteratorIPNSt7__cxx1112basic_stringIDsSt11char_traitsIDsESaIDsEEESt6vectorIS6_SaIS6_EEEdeEv
	movq	%rax, %rdx
	leaq	-64(%rbp), %rax
	movq	%rdx, %rsi
	movq	%rax, %rdi
.LEHB55:
	call	_ZNSt7__cxx1112basic_stringIDsSt11char_traitsIDsESaIDsEEC1ERKS4_
.LEHE55:
	movl	$1, -184(%rbp)
	movl	-180(%rbp), %eax
	subl	$1, %eax
	cmpl	-188(%rbp), %eax
	jne	.L262
	leaq	-64(%rbp), %rax
	movq	%rax, -104(%rbp)
	movq	-104(%rbp), %rax
	movq	%rax, %rdi
	call	_ZNSt7__cxx1112basic_stringIDsSt11char_traitsIDsESaIDsEE5beginEv
	movq	%rax, -144(%rbp)
	movq	-104(%rbp), %rax
	movq	%rax, %rdi
	call	_ZNSt7__cxx1112basic_stringIDsSt11char_traitsIDsESaIDsEE3endEv
	movq	%rax, -128(%rbp)
.L268:
	leaq	-128(%rbp), %rdx
	leaq	-144(%rbp), %rax
	movq	%rdx, %rsi
	movq	%rax, %rdi
	call	_ZN9__gnu_cxxneIPDsNSt7__cxx1112basic_stringIDsSt11char_traitsIDsESaIDsEEEEEbRKNS_17__normal_iteratorIT_T0_EESD_
	testb	%al, %al
	je	.L263
	leaq	-144(%rbp), %rax
	movq	%rax, %rdi
	call	_ZNK9__gnu_cxx17__normal_iteratorIPDsNSt7__cxx1112basic_stringIDsSt11char_traitsIDsESaIDsEEEEdeEv
	movzwl	(%rax), %eax
	movw	%ax, -190(%rbp)
	cmpl	$1, -184(%rbp)
	jne	.L264
	cmpw	$32, -190(%rbp)
	jne	.L281
	movl	$2, -184(%rbp)
	jmp	.L266
.L264:
	cmpl	$2, -184(%rbp)
	jne	.L266
	cmpw	$32, -190(%rbp)
	je	.L282
	movzwl	-190(%rbp), %edx
	leaq	-96(%rbp), %rax
	movl	%edx, %esi
	movq	%rax, %rdi
.LEHB56:
	call	_ZNSt7__cxx1112basic_stringIDsSt11char_traitsIDsESaIDsEEpLEDs
.LEHE56:
	jmp	.L266
.L281:
	nop
	jmp	.L266
.L282:
	nop
.L266:
	leaq	-144(%rbp), %rax
	movq	%rax, %rdi
	call	_ZN9__gnu_cxx17__normal_iteratorIPDsNSt7__cxx1112basic_stringIDsSt11char_traitsIDsESaIDsEEEEppEv
	jmp	.L268
.L263:
	movl	$0, %ebx
	jmp	.L269
.L262:
	addl	$1, -188(%rbp)
	movl	$1, %ebx
.L269:
	leaq	-64(%rbp), %rax
	movq	%rax, %rdi
	call	_ZNSt7__cxx1112basic_stringIDsSt11char_traitsIDsESaIDsEED1Ev
	cmpl	$1, %ebx
	jne	.L261
	nop
	leaq	-176(%rbp), %rax
	movq	%rax, %rdi
	call	_ZN9__gnu_cxx17__normal_iteratorIPNSt7__cxx1112basic_stringIDsSt11char_traitsIDsESaIDsEEESt6vectorIS6_SaIS6_EEEppEv
	jmp	.L271
.L261:
	leaq	-96(%rbp), %rdx
	leaq	-64(%rbp), %rax
	movq	%rdx, %rsi
	movq	%rax, %rdi
.LEHB57:
	call	_ZNSt7__cxx1112basic_stringIDsSt11char_traitsIDsESaIDsEEC1ERKS4_
.LEHE57:
	leaq	-64(%rbp), %rax
	movl	$1, %esi
	movq	%rax, %rdi
.LEHB58:
	call	_Z15greatFindDefineNSt7__cxx1112basic_stringIDsSt11char_traitsIDsESaIDsEEEi
.LEHE58:
	leaq	-64(%rbp), %rax
	movq	%rax, %rdi
	call	_ZNSt7__cxx1112basic_stringIDsSt11char_traitsIDsESaIDsEED1Ev
.L260:
	leaq	-96(%rbp), %rax
	movq	%rax, %rdi
	call	_ZNSt7__cxx1112basic_stringIDsSt11char_traitsIDsESaIDsEED1Ev
	nop
	movq	-24(%rbp), %rax
	xorq	%fs:40, %rax
	je	.L275
	jmp	.L280
.L276:
	movq	%rax, %rbx
	leaq	-64(%rbp), %rax
	movq	%rax, %rdi
	call	_ZNSt7__cxx1112basic_stringIDsSt11char_traitsIDsESaIDsEED1Ev
	jmp	.L273
.L278:
	movq	%rax, %rbx
	leaq	-64(%rbp), %rax
	movq	%rax, %rdi
	call	_ZNSt7__cxx1112basic_stringIDsSt11char_traitsIDsESaIDsEED1Ev
	jmp	.L273
.L277:
	movq	%rax, %rbx
.L273:
	leaq	-96(%rbp), %rax
	movq	%rax, %rdi
	call	_ZNSt7__cxx1112basic_stringIDsSt11char_traitsIDsESaIDsEED1Ev
	movq	%rbx, %rax
	movq	%rax, %rdi
.LEHB59:
	call	_Unwind_Resume
.LEHE59:
.L280:
	call	__stack_chk_fail
.L275:
	addq	$200, %rsp
	popq	%rbx
	popq	%rbp
	.cfi_def_cfa 7, 8
	ret
	.cfi_endproc
.LFE8103:
	.section	.gcc_except_table
.LLSDA8103:
	.byte	0xff
	.byte	0xff
	.byte	0x1
	.uleb128 .LLSDACSE8103-.LLSDACSB8103
.LLSDACSB8103:
	.uleb128 .LEHB54-.LFB8103
	.uleb128 .LEHE54-.LEHB54
	.uleb128 0
	.uleb128 0
	.uleb128 .LEHB55-.LFB8103
	.uleb128 .LEHE55-.LEHB55
	.uleb128 .L277-.LFB8103
	.uleb128 0
	.uleb128 .LEHB56-.LFB8103
	.uleb128 .LEHE56-.LEHB56
	.uleb128 .L276-.LFB8103
	.uleb128 0
	.uleb128 .LEHB57-.LFB8103
	.uleb128 .LEHE57-.LEHB57
	.uleb128 .L277-.LFB8103
	.uleb128 0
	.uleb128 .LEHB58-.LFB8103
	.uleb128 .LEHE58-.LEHB58
	.uleb128 .L278-.LFB8103
	.uleb128 0
	.uleb128 .LEHB59-.LFB8103
	.uleb128 .LEHE59-.LEHB59
	.uleb128 0
	.uleb128 0
.LLSDACSE8103:
	.text
	.size	_Z18getRelationContentRSt6vectorINSt7__cxx1112basic_stringIDsSt11char_traitsIDsESaIDsEEESaIS5_EE, .-_Z18getRelationContentRSt6vectorINSt7__cxx1112basic_stringIDsSt11char_traitsIDsESaIDsEEESaIS5_EE
	.section	.text._ZNSt8__detail9_IdentityC2Ev,"axG",@progbits,_ZNSt8__detail9_IdentityC5Ev,comdat
	.align 2
	.weak	_ZNSt8__detail9_IdentityC2Ev
	.type	_ZNSt8__detail9_IdentityC2Ev, @function
_ZNSt8__detail9_IdentityC2Ev:
.LFB8111:
	.cfi_startproc
	pushq	%rbp
	.cfi_def_cfa_offset 16
	.cfi_offset 6, -16
	movq	%rsp, %rbp
	.cfi_def_cfa_register 6
	movq	%rdi, -8(%rbp)
	nop
	popq	%rbp
	.cfi_def_cfa 7, 8
	ret
	.cfi_endproc
.LFE8111:
	.size	_ZNSt8__detail9_IdentityC2Ev, .-_ZNSt8__detail9_IdentityC2Ev
	.weak	_ZNSt8__detail9_IdentityC1Ev
	.set	_ZNSt8__detail9_IdentityC1Ev,_ZNSt8__detail9_IdentityC2Ev
	.section	.text._ZNSt8__detail21_Hashtable_ebo_helperILi0ENS_9_IdentityELb1EEC2Ev,"axG",@progbits,_ZNSt8__detail21_Hashtable_ebo_helperILi0ENS_9_IdentityELb1EEC5Ev,comdat
	.align 2
	.weak	_ZNSt8__detail21_Hashtable_ebo_helperILi0ENS_9_IdentityELb1EEC2Ev
	.type	_ZNSt8__detail21_Hashtable_ebo_helperILi0ENS_9_IdentityELb1EEC2Ev, @function
_ZNSt8__detail21_Hashtable_ebo_helperILi0ENS_9_IdentityELb1EEC2Ev:
.LFB8113:
	.cfi_startproc
	pushq	%rbp
	.cfi_def_cfa_offset 16
	.cfi_offset 6, -16
	movq	%rsp, %rbp
	.cfi_def_cfa_register 6
	subq	$16, %rsp
	movq	%rdi, -8(%rbp)
	movq	-8(%rbp), %rax
	movq	%rax, %rdi
	call	_ZNSt8__detail9_IdentityC2Ev
	nop
	leave
	.cfi_def_cfa 7, 8
	ret
	.cfi_endproc
.LFE8113:
	.size	_ZNSt8__detail21_Hashtable_ebo_helperILi0ENS_9_IdentityELb1EEC2Ev, .-_ZNSt8__detail21_Hashtable_ebo_helperILi0ENS_9_IdentityELb1EEC2Ev
	.weak	_ZNSt8__detail21_Hashtable_ebo_helperILi0ENS_9_IdentityELb1EEC1Ev
	.set	_ZNSt8__detail21_Hashtable_ebo_helperILi0ENS_9_IdentityELb1EEC1Ev,_ZNSt8__detail21_Hashtable_ebo_helperILi0ENS_9_IdentityELb1EEC2Ev
	.section	.text._ZNSt11__hash_baseImNSt7__cxx1112basic_stringIDsSt11char_traitsIDsESaIDsEEEEC2Ev,"axG",@progbits,_ZNSt11__hash_baseImNSt7__cxx1112basic_stringIDsSt11char_traitsIDsESaIDsEEEEC5Ev,comdat
	.align 2
	.weak	_ZNSt11__hash_baseImNSt7__cxx1112basic_stringIDsSt11char_traitsIDsESaIDsEEEEC2Ev
	.type	_ZNSt11__hash_baseImNSt7__cxx1112basic_stringIDsSt11char_traitsIDsESaIDsEEEEC2Ev, @function
_ZNSt11__hash_baseImNSt7__cxx1112basic_stringIDsSt11char_traitsIDsESaIDsEEEEC2Ev:
.LFB8118:
	.cfi_startproc
	pushq	%rbp
	.cfi_def_cfa_offset 16
	.cfi_offset 6, -16
	movq	%rsp, %rbp
	.cfi_def_cfa_register 6
	movq	%rdi, -8(%rbp)
	nop
	popq	%rbp
	.cfi_def_cfa 7, 8
	ret
	.cfi_endproc
.LFE8118:
	.size	_ZNSt11__hash_baseImNSt7__cxx1112basic_stringIDsSt11char_traitsIDsESaIDsEEEEC2Ev, .-_ZNSt11__hash_baseImNSt7__cxx1112basic_stringIDsSt11char_traitsIDsESaIDsEEEEC2Ev
	.weak	_ZNSt11__hash_baseImNSt7__cxx1112basic_stringIDsSt11char_traitsIDsESaIDsEEEEC1Ev
	.set	_ZNSt11__hash_baseImNSt7__cxx1112basic_stringIDsSt11char_traitsIDsESaIDsEEEEC1Ev,_ZNSt11__hash_baseImNSt7__cxx1112basic_stringIDsSt11char_traitsIDsESaIDsEEEEC2Ev
	.section	.text._ZNSt4hashINSt7__cxx1112basic_stringIDsSt11char_traitsIDsESaIDsEEEEC2Ev,"axG",@progbits,_ZNSt4hashINSt7__cxx1112basic_stringIDsSt11char_traitsIDsESaIDsEEEEC5Ev,comdat
	.align 2
	.weak	_ZNSt4hashINSt7__cxx1112basic_stringIDsSt11char_traitsIDsESaIDsEEEEC2Ev
	.type	_ZNSt4hashINSt7__cxx1112basic_stringIDsSt11char_traitsIDsESaIDsEEEEC2Ev, @function
_ZNSt4hashINSt7__cxx1112basic_stringIDsSt11char_traitsIDsESaIDsEEEEC2Ev:
.LFB8120:
	.cfi_startproc
	pushq	%rbp
	.cfi_def_cfa_offset 16
	.cfi_offset 6, -16
	movq	%rsp, %rbp
	.cfi_def_cfa_register 6
	subq	$16, %rsp
	movq	%rdi, -8(%rbp)
	movq	-8(%rbp), %rax
	movq	%rax, %rdi
	call	_ZNSt11__hash_baseImNSt7__cxx1112basic_stringIDsSt11char_traitsIDsESaIDsEEEEC2Ev
	nop
	leave
	.cfi_def_cfa 7, 8
	ret
	.cfi_endproc
.LFE8120:
	.size	_ZNSt4hashINSt7__cxx1112basic_stringIDsSt11char_traitsIDsESaIDsEEEEC2Ev, .-_ZNSt4hashINSt7__cxx1112basic_stringIDsSt11char_traitsIDsESaIDsEEEEC2Ev
	.weak	_ZNSt4hashINSt7__cxx1112basic_stringIDsSt11char_traitsIDsESaIDsEEEEC1Ev
	.set	_ZNSt4hashINSt7__cxx1112basic_stringIDsSt11char_traitsIDsESaIDsEEEEC1Ev,_ZNSt4hashINSt7__cxx1112basic_stringIDsSt11char_traitsIDsESaIDsEEEEC2Ev
	.section	.text._ZNSt8__detail21_Hashtable_ebo_helperILi1ESt4hashINSt7__cxx1112basic_stringIDsSt11char_traitsIDsESaIDsEEEELb1EEC2Ev,"axG",@progbits,_ZNSt8__detail21_Hashtable_ebo_helperILi1ESt4hashINSt7__cxx1112basic_stringIDsSt11char_traitsIDsESaIDsEEEELb1EEC5Ev,comdat
	.align 2
	.weak	_ZNSt8__detail21_Hashtable_ebo_helperILi1ESt4hashINSt7__cxx1112basic_stringIDsSt11char_traitsIDsESaIDsEEEELb1EEC2Ev
	.type	_ZNSt8__detail21_Hashtable_ebo_helperILi1ESt4hashINSt7__cxx1112basic_stringIDsSt11char_traitsIDsESaIDsEEEELb1EEC2Ev, @function
_ZNSt8__detail21_Hashtable_ebo_helperILi1ESt4hashINSt7__cxx1112basic_stringIDsSt11char_traitsIDsESaIDsEEEELb1EEC2Ev:
.LFB8122:
	.cfi_startproc
	pushq	%rbp
	.cfi_def_cfa_offset 16
	.cfi_offset 6, -16
	movq	%rsp, %rbp
	.cfi_def_cfa_register 6
	subq	$16, %rsp
	movq	%rdi, -8(%rbp)
	movq	-8(%rbp), %rax
	movq	%rax, %rdi
	call	_ZNSt4hashINSt7__cxx1112basic_stringIDsSt11char_traitsIDsESaIDsEEEEC2Ev
	nop
	leave
	.cfi_def_cfa 7, 8
	ret
	.cfi_endproc
.LFE8122:
	.size	_ZNSt8__detail21_Hashtable_ebo_helperILi1ESt4hashINSt7__cxx1112basic_stringIDsSt11char_traitsIDsESaIDsEEEELb1EEC2Ev, .-_ZNSt8__detail21_Hashtable_ebo_helperILi1ESt4hashINSt7__cxx1112basic_stringIDsSt11char_traitsIDsESaIDsEEEELb1EEC2Ev
	.weak	_ZNSt8__detail21_Hashtable_ebo_helperILi1ESt4hashINSt7__cxx1112basic_stringIDsSt11char_traitsIDsESaIDsEEEELb1EEC1Ev
	.set	_ZNSt8__detail21_Hashtable_ebo_helperILi1ESt4hashINSt7__cxx1112basic_stringIDsSt11char_traitsIDsESaIDsEEEELb1EEC1Ev,_ZNSt8__detail21_Hashtable_ebo_helperILi1ESt4hashINSt7__cxx1112basic_stringIDsSt11char_traitsIDsESaIDsEEEELb1EEC2Ev
	.section	.text._ZNSt8__detail18_Mod_range_hashingC2Ev,"axG",@progbits,_ZNSt8__detail18_Mod_range_hashingC5Ev,comdat
	.align 2
	.weak	_ZNSt8__detail18_Mod_range_hashingC2Ev
	.type	_ZNSt8__detail18_Mod_range_hashingC2Ev, @function
_ZNSt8__detail18_Mod_range_hashingC2Ev:
.LFB8126:
	.cfi_startproc
	pushq	%rbp
	.cfi_def_cfa_offset 16
	.cfi_offset 6, -16
	movq	%rsp, %rbp
	.cfi_def_cfa_register 6
	movq	%rdi, -8(%rbp)
	nop
	popq	%rbp
	.cfi_def_cfa 7, 8
	ret
	.cfi_endproc
.LFE8126:
	.size	_ZNSt8__detail18_Mod_range_hashingC2Ev, .-_ZNSt8__detail18_Mod_range_hashingC2Ev
	.weak	_ZNSt8__detail18_Mod_range_hashingC1Ev
	.set	_ZNSt8__detail18_Mod_range_hashingC1Ev,_ZNSt8__detail18_Mod_range_hashingC2Ev
	.section	.text._ZNSt8__detail21_Hashtable_ebo_helperILi2ENS_18_Mod_range_hashingELb1EEC2Ev,"axG",@progbits,_ZNSt8__detail21_Hashtable_ebo_helperILi2ENS_18_Mod_range_hashingELb1EEC5Ev,comdat
	.align 2
	.weak	_ZNSt8__detail21_Hashtable_ebo_helperILi2ENS_18_Mod_range_hashingELb1EEC2Ev
	.type	_ZNSt8__detail21_Hashtable_ebo_helperILi2ENS_18_Mod_range_hashingELb1EEC2Ev, @function
_ZNSt8__detail21_Hashtable_ebo_helperILi2ENS_18_Mod_range_hashingELb1EEC2Ev:
.LFB8128:
	.cfi_startproc
	pushq	%rbp
	.cfi_def_cfa_offset 16
	.cfi_offset 6, -16
	movq	%rsp, %rbp
	.cfi_def_cfa_register 6
	subq	$16, %rsp
	movq	%rdi, -8(%rbp)
	movq	-8(%rbp), %rax
	movq	%rax, %rdi
	call	_ZNSt8__detail18_Mod_range_hashingC2Ev
	nop
	leave
	.cfi_def_cfa 7, 8
	ret
	.cfi_endproc
.LFE8128:
	.size	_ZNSt8__detail21_Hashtable_ebo_helperILi2ENS_18_Mod_range_hashingELb1EEC2Ev, .-_ZNSt8__detail21_Hashtable_ebo_helperILi2ENS_18_Mod_range_hashingELb1EEC2Ev
	.weak	_ZNSt8__detail21_Hashtable_ebo_helperILi2ENS_18_Mod_range_hashingELb1EEC1Ev
	.set	_ZNSt8__detail21_Hashtable_ebo_helperILi2ENS_18_Mod_range_hashingELb1EEC1Ev,_ZNSt8__detail21_Hashtable_ebo_helperILi2ENS_18_Mod_range_hashingELb1EEC2Ev
	.section	.text._ZNSt8__detail15_Hash_code_baseINSt7__cxx1112basic_stringIDsSt11char_traitsIDsESaIDsEEES6_NS_9_IdentityESt4hashIS6_ENS_18_Mod_range_hashingENS_20_Default_ranged_hashELb1EEC2Ev,"axG",@progbits,_ZNSt8__detail15_Hash_code_baseINSt7__cxx1112basic_stringIDsSt11char_traitsIDsESaIDsEEES6_NS_9_IdentityESt4hashIS6_ENS_18_Mod_range_hashingENS_20_Default_ranged_hashELb1EEC5Ev,comdat
	.align 2
	.weak	_ZNSt8__detail15_Hash_code_baseINSt7__cxx1112basic_stringIDsSt11char_traitsIDsESaIDsEEES6_NS_9_IdentityESt4hashIS6_ENS_18_Mod_range_hashingENS_20_Default_ranged_hashELb1EEC2Ev
	.type	_ZNSt8__detail15_Hash_code_baseINSt7__cxx1112basic_stringIDsSt11char_traitsIDsESaIDsEEES6_NS_9_IdentityESt4hashIS6_ENS_18_Mod_range_hashingENS_20_Default_ranged_hashELb1EEC2Ev, @function
_ZNSt8__detail15_Hash_code_baseINSt7__cxx1112basic_stringIDsSt11char_traitsIDsESaIDsEEES6_NS_9_IdentityESt4hashIS6_ENS_18_Mod_range_hashingENS_20_Default_ranged_hashELb1EEC2Ev:
.LFB8130:
	.cfi_startproc
	pushq	%rbp
	.cfi_def_cfa_offset 16
	.cfi_offset 6, -16
	movq	%rsp, %rbp
	.cfi_def_cfa_register 6
	subq	$16, %rsp
	movq	%rdi, -8(%rbp)
	movq	-8(%rbp), %rax
	movq	%rax, %rdi
	call	_ZNSt8__detail21_Hashtable_ebo_helperILi0ENS_9_IdentityELb1EEC2Ev
	movq	-8(%rbp), %rax
	movq	%rax, %rdi
	call	_ZNSt8__detail21_Hashtable_ebo_helperILi1ESt4hashINSt7__cxx1112basic_stringIDsSt11char_traitsIDsESaIDsEEEELb1EEC2Ev
	movq	-8(%rbp), %rax
	movq	%rax, %rdi
	call	_ZNSt8__detail21_Hashtable_ebo_helperILi2ENS_18_Mod_range_hashingELb1EEC2Ev
	nop
	leave
	.cfi_def_cfa 7, 8
	ret
	.cfi_endproc
.LFE8130:
	.size	_ZNSt8__detail15_Hash_code_baseINSt7__cxx1112basic_stringIDsSt11char_traitsIDsESaIDsEEES6_NS_9_IdentityESt4hashIS6_ENS_18_Mod_range_hashingENS_20_Default_ranged_hashELb1EEC2Ev, .-_ZNSt8__detail15_Hash_code_baseINSt7__cxx1112basic_stringIDsSt11char_traitsIDsESaIDsEEES6_NS_9_IdentityESt4hashIS6_ENS_18_Mod_range_hashingENS_20_Default_ranged_hashELb1EEC2Ev
	.weak	_ZNSt8__detail15_Hash_code_baseINSt7__cxx1112basic_stringIDsSt11char_traitsIDsESaIDsEEES6_NS_9_IdentityESt4hashIS6_ENS_18_Mod_range_hashingENS_20_Default_ranged_hashELb1EEC1Ev
	.set	_ZNSt8__detail15_Hash_code_baseINSt7__cxx1112basic_stringIDsSt11char_traitsIDsESaIDsEEES6_NS_9_IdentityESt4hashIS6_ENS_18_Mod_range_hashingENS_20_Default_ranged_hashELb1EEC1Ev,_ZNSt8__detail15_Hash_code_baseINSt7__cxx1112basic_stringIDsSt11char_traitsIDsESaIDsEEES6_NS_9_IdentityESt4hashIS6_ENS_18_Mod_range_hashingENS_20_Default_ranged_hashELb1EEC2Ev
	.section	.text._ZNSt15binary_functionINSt7__cxx1112basic_stringIDsSt11char_traitsIDsESaIDsEEES5_bEC2Ev,"axG",@progbits,_ZNSt15binary_functionINSt7__cxx1112basic_stringIDsSt11char_traitsIDsESaIDsEEES5_bEC5Ev,comdat
	.align 2
	.weak	_ZNSt15binary_functionINSt7__cxx1112basic_stringIDsSt11char_traitsIDsESaIDsEEES5_bEC2Ev
	.type	_ZNSt15binary_functionINSt7__cxx1112basic_stringIDsSt11char_traitsIDsESaIDsEEES5_bEC2Ev, @function
_ZNSt15binary_functionINSt7__cxx1112basic_stringIDsSt11char_traitsIDsESaIDsEEES5_bEC2Ev:
.LFB8135:
	.cfi_startproc
	pushq	%rbp
	.cfi_def_cfa_offset 16
	.cfi_offset 6, -16
	movq	%rsp, %rbp
	.cfi_def_cfa_register 6
	movq	%rdi, -8(%rbp)
	nop
	popq	%rbp
	.cfi_def_cfa 7, 8
	ret
	.cfi_endproc
.LFE8135:
	.size	_ZNSt15binary_functionINSt7__cxx1112basic_stringIDsSt11char_traitsIDsESaIDsEEES5_bEC2Ev, .-_ZNSt15binary_functionINSt7__cxx1112basic_stringIDsSt11char_traitsIDsESaIDsEEES5_bEC2Ev
	.weak	_ZNSt15binary_functionINSt7__cxx1112basic_stringIDsSt11char_traitsIDsESaIDsEEES5_bEC1Ev
	.set	_ZNSt15binary_functionINSt7__cxx1112basic_stringIDsSt11char_traitsIDsESaIDsEEES5_bEC1Ev,_ZNSt15binary_functionINSt7__cxx1112basic_stringIDsSt11char_traitsIDsESaIDsEEES5_bEC2Ev
	.section	.text._ZNSt8equal_toINSt7__cxx1112basic_stringIDsSt11char_traitsIDsESaIDsEEEEC2Ev,"axG",@progbits,_ZNSt8equal_toINSt7__cxx1112basic_stringIDsSt11char_traitsIDsESaIDsEEEEC5Ev,comdat
	.align 2
	.weak	_ZNSt8equal_toINSt7__cxx1112basic_stringIDsSt11char_traitsIDsESaIDsEEEEC2Ev
	.type	_ZNSt8equal_toINSt7__cxx1112basic_stringIDsSt11char_traitsIDsESaIDsEEEEC2Ev, @function
_ZNSt8equal_toINSt7__cxx1112basic_stringIDsSt11char_traitsIDsESaIDsEEEEC2Ev:
.LFB8137:
	.cfi_startproc
	pushq	%rbp
	.cfi_def_cfa_offset 16
	.cfi_offset 6, -16
	movq	%rsp, %rbp
	.cfi_def_cfa_register 6
	subq	$16, %rsp
	movq	%rdi, -8(%rbp)
	movq	-8(%rbp), %rax
	movq	%rax, %rdi
	call	_ZNSt15binary_functionINSt7__cxx1112basic_stringIDsSt11char_traitsIDsESaIDsEEES5_bEC2Ev
	nop
	leave
	.cfi_def_cfa 7, 8
	ret
	.cfi_endproc
.LFE8137:
	.size	_ZNSt8equal_toINSt7__cxx1112basic_stringIDsSt11char_traitsIDsESaIDsEEEEC2Ev, .-_ZNSt8equal_toINSt7__cxx1112basic_stringIDsSt11char_traitsIDsESaIDsEEEEC2Ev
	.weak	_ZNSt8equal_toINSt7__cxx1112basic_stringIDsSt11char_traitsIDsESaIDsEEEEC1Ev
	.set	_ZNSt8equal_toINSt7__cxx1112basic_stringIDsSt11char_traitsIDsESaIDsEEEEC1Ev,_ZNSt8equal_toINSt7__cxx1112basic_stringIDsSt11char_traitsIDsESaIDsEEEEC2Ev
	.section	.text._ZNSt8__detail21_Hashtable_ebo_helperILi0ESt8equal_toINSt7__cxx1112basic_stringIDsSt11char_traitsIDsESaIDsEEEELb1EEC2Ev,"axG",@progbits,_ZNSt8__detail21_Hashtable_ebo_helperILi0ESt8equal_toINSt7__cxx1112basic_stringIDsSt11char_traitsIDsESaIDsEEEELb1EEC5Ev,comdat
	.align 2
	.weak	_ZNSt8__detail21_Hashtable_ebo_helperILi0ESt8equal_toINSt7__cxx1112basic_stringIDsSt11char_traitsIDsESaIDsEEEELb1EEC2Ev
	.type	_ZNSt8__detail21_Hashtable_ebo_helperILi0ESt8equal_toINSt7__cxx1112basic_stringIDsSt11char_traitsIDsESaIDsEEEELb1EEC2Ev, @function
_ZNSt8__detail21_Hashtable_ebo_helperILi0ESt8equal_toINSt7__cxx1112basic_stringIDsSt11char_traitsIDsESaIDsEEEELb1EEC2Ev:
.LFB8139:
	.cfi_startproc
	pushq	%rbp
	.cfi_def_cfa_offset 16
	.cfi_offset 6, -16
	movq	%rsp, %rbp
	.cfi_def_cfa_register 6
	subq	$16, %rsp
	movq	%rdi, -8(%rbp)
	movq	-8(%rbp), %rax
	movq	%rax, %rdi
	call	_ZNSt8equal_toINSt7__cxx1112basic_stringIDsSt11char_traitsIDsESaIDsEEEEC2Ev
	nop
	leave
	.cfi_def_cfa 7, 8
	ret
	.cfi_endproc
.LFE8139:
	.size	_ZNSt8__detail21_Hashtable_ebo_helperILi0ESt8equal_toINSt7__cxx1112basic_stringIDsSt11char_traitsIDsESaIDsEEEELb1EEC2Ev, .-_ZNSt8__detail21_Hashtable_ebo_helperILi0ESt8equal_toINSt7__cxx1112basic_stringIDsSt11char_traitsIDsESaIDsEEEELb1EEC2Ev
	.weak	_ZNSt8__detail21_Hashtable_ebo_helperILi0ESt8equal_toINSt7__cxx1112basic_stringIDsSt11char_traitsIDsESaIDsEEEELb1EEC1Ev
	.set	_ZNSt8__detail21_Hashtable_ebo_helperILi0ESt8equal_toINSt7__cxx1112basic_stringIDsSt11char_traitsIDsESaIDsEEEELb1EEC1Ev,_ZNSt8__detail21_Hashtable_ebo_helperILi0ESt8equal_toINSt7__cxx1112basic_stringIDsSt11char_traitsIDsESaIDsEEEELb1EEC2Ev
	.section	.text._ZNSt8__detail15_Hashtable_baseINSt7__cxx1112basic_stringIDsSt11char_traitsIDsESaIDsEEES6_NS_9_IdentityESt8equal_toIS6_ESt4hashIS6_ENS_18_Mod_range_hashingENS_20_Default_ranged_hashENS_17_Hashtable_traitsILb1ELb1ELb1EEEEC2Ev,"axG",@progbits,_ZNSt8__detail15_Hashtable_baseINSt7__cxx1112basic_stringIDsSt11char_traitsIDsESaIDsEEES6_NS_9_IdentityESt8equal_toIS6_ESt4hashIS6_ENS_18_Mod_range_hashingENS_20_Default_ranged_hashENS_17_Hashtable_traitsILb1ELb1ELb1EEEEC5Ev,comdat
	.align 2
	.weak	_ZNSt8__detail15_Hashtable_baseINSt7__cxx1112basic_stringIDsSt11char_traitsIDsESaIDsEEES6_NS_9_IdentityESt8equal_toIS6_ESt4hashIS6_ENS_18_Mod_range_hashingENS_20_Default_ranged_hashENS_17_Hashtable_traitsILb1ELb1ELb1EEEEC2Ev
	.type	_ZNSt8__detail15_Hashtable_baseINSt7__cxx1112basic_stringIDsSt11char_traitsIDsESaIDsEEES6_NS_9_IdentityESt8equal_toIS6_ESt4hashIS6_ENS_18_Mod_range_hashingENS_20_Default_ranged_hashENS_17_Hashtable_traitsILb1ELb1ELb1EEEEC2Ev, @function
_ZNSt8__detail15_Hashtable_baseINSt7__cxx1112basic_stringIDsSt11char_traitsIDsESaIDsEEES6_NS_9_IdentityESt8equal_toIS6_ESt4hashIS6_ENS_18_Mod_range_hashingENS_20_Default_ranged_hashENS_17_Hashtable_traitsILb1ELb1ELb1EEEEC2Ev:
.LFB8141:
	.cfi_startproc
	pushq	%rbp
	.cfi_def_cfa_offset 16
	.cfi_offset 6, -16
	movq	%rsp, %rbp
	.cfi_def_cfa_register 6
	subq	$16, %rsp
	movq	%rdi, -8(%rbp)
	movq	-8(%rbp), %rax
	movq	%rax, %rdi
	call	_ZNSt8__detail15_Hash_code_baseINSt7__cxx1112basic_stringIDsSt11char_traitsIDsESaIDsEEES6_NS_9_IdentityESt4hashIS6_ENS_18_Mod_range_hashingENS_20_Default_ranged_hashELb1EEC2Ev
	movq	-8(%rbp), %rax
	movq	%rax, %rdi
	call	_ZNSt8__detail21_Hashtable_ebo_helperILi0ESt8equal_toINSt7__cxx1112basic_stringIDsSt11char_traitsIDsESaIDsEEEELb1EEC2Ev
	nop
	leave
	.cfi_def_cfa 7, 8
	ret
	.cfi_endproc
.LFE8141:
	.size	_ZNSt8__detail15_Hashtable_baseINSt7__cxx1112basic_stringIDsSt11char_traitsIDsESaIDsEEES6_NS_9_IdentityESt8equal_toIS6_ESt4hashIS6_ENS_18_Mod_range_hashingENS_20_Default_ranged_hashENS_17_Hashtable_traitsILb1ELb1ELb1EEEEC2Ev, .-_ZNSt8__detail15_Hashtable_baseINSt7__cxx1112basic_stringIDsSt11char_traitsIDsESaIDsEEES6_NS_9_IdentityESt8equal_toIS6_ESt4hashIS6_ENS_18_Mod_range_hashingENS_20_Default_ranged_hashENS_17_Hashtable_traitsILb1ELb1ELb1EEEEC2Ev
	.weak	_ZNSt8__detail15_Hashtable_baseINSt7__cxx1112basic_stringIDsSt11char_traitsIDsESaIDsEEES6_NS_9_IdentityESt8equal_toIS6_ESt4hashIS6_ENS_18_Mod_range_hashingENS_20_Default_ranged_hashENS_17_Hashtable_traitsILb1ELb1ELb1EEEEC1Ev
	.set	_ZNSt8__detail15_Hashtable_baseINSt7__cxx1112basic_stringIDsSt11char_traitsIDsESaIDsEEES6_NS_9_IdentityESt8equal_toIS6_ESt4hashIS6_ENS_18_Mod_range_hashingENS_20_Default_ranged_hashENS_17_Hashtable_traitsILb1ELb1ELb1EEEEC1Ev,_ZNSt8__detail15_Hashtable_baseINSt7__cxx1112basic_stringIDsSt11char_traitsIDsESaIDsEEES6_NS_9_IdentityESt8equal_toIS6_ESt4hashIS6_ENS_18_Mod_range_hashingENS_20_Default_ranged_hashENS_17_Hashtable_traitsILb1ELb1ELb1EEEEC2Ev
	.section	.text._ZNSt8__detail9_Map_baseINSt7__cxx1112basic_stringIDsSt11char_traitsIDsESaIDsEEES6_SaIS6_ENS_9_IdentityESt8equal_toIS6_ESt4hashIS6_ENS_18_Mod_range_hashingENS_20_Default_ranged_hashENS_20_Prime_rehash_policyENS_17_Hashtable_traitsILb1ELb1ELb1EEELb1EEC2Ev,"axG",@progbits,_ZNSt8__detail9_Map_baseINSt7__cxx1112basic_stringIDsSt11char_traitsIDsESaIDsEEES6_SaIS6_ENS_9_IdentityESt8equal_toIS6_ESt4hashIS6_ENS_18_Mod_range_hashingENS_20_Default_ranged_hashENS_20_Prime_rehash_policyENS_17_Hashtable_traitsILb1ELb1ELb1EEELb1EEC5Ev,comdat
	.align 2
	.weak	_ZNSt8__detail9_Map_baseINSt7__cxx1112basic_stringIDsSt11char_traitsIDsESaIDsEEES6_SaIS6_ENS_9_IdentityESt8equal_toIS6_ESt4hashIS6_ENS_18_Mod_range_hashingENS_20_Default_ranged_hashENS_20_Prime_rehash_policyENS_17_Hashtable_traitsILb1ELb1ELb1EEELb1EEC2Ev
	.type	_ZNSt8__detail9_Map_baseINSt7__cxx1112basic_stringIDsSt11char_traitsIDsESaIDsEEES6_SaIS6_ENS_9_IdentityESt8equal_toIS6_ESt4hashIS6_ENS_18_Mod_range_hashingENS_20_Default_ranged_hashENS_20_Prime_rehash_policyENS_17_Hashtable_traitsILb1ELb1ELb1EEELb1EEC2Ev, @function
_ZNSt8__detail9_Map_baseINSt7__cxx1112basic_stringIDsSt11char_traitsIDsESaIDsEEES6_SaIS6_ENS_9_IdentityESt8equal_toIS6_ESt4hashIS6_ENS_18_Mod_range_hashingENS_20_Default_ranged_hashENS_20_Prime_rehash_policyENS_17_Hashtable_traitsILb1ELb1ELb1EEELb1EEC2Ev:
.LFB8144:
	.cfi_startproc
	pushq	%rbp
	.cfi_def_cfa_offset 16
	.cfi_offset 6, -16
	movq	%rsp, %rbp
	.cfi_def_cfa_register 6
	movq	%rdi, -8(%rbp)
	nop
	popq	%rbp
	.cfi_def_cfa 7, 8
	ret
	.cfi_endproc
.LFE8144:
	.size	_ZNSt8__detail9_Map_baseINSt7__cxx1112basic_stringIDsSt11char_traitsIDsESaIDsEEES6_SaIS6_ENS_9_IdentityESt8equal_toIS6_ESt4hashIS6_ENS_18_Mod_range_hashingENS_20_Default_ranged_hashENS_20_Prime_rehash_policyENS_17_Hashtable_traitsILb1ELb1ELb1EEELb1EEC2Ev, .-_ZNSt8__detail9_Map_baseINSt7__cxx1112basic_stringIDsSt11char_traitsIDsESaIDsEEES6_SaIS6_ENS_9_IdentityESt8equal_toIS6_ESt4hashIS6_ENS_18_Mod_range_hashingENS_20_Default_ranged_hashENS_20_Prime_rehash_policyENS_17_Hashtable_traitsILb1ELb1ELb1EEELb1EEC2Ev
	.weak	_ZNSt8__detail9_Map_baseINSt7__cxx1112basic_stringIDsSt11char_traitsIDsESaIDsEEES6_SaIS6_ENS_9_IdentityESt8equal_toIS6_ESt4hashIS6_ENS_18_Mod_range_hashingENS_20_Default_ranged_hashENS_20_Prime_rehash_policyENS_17_Hashtable_traitsILb1ELb1ELb1EEELb1EEC1Ev
	.set	_ZNSt8__detail9_Map_baseINSt7__cxx1112basic_stringIDsSt11char_traitsIDsESaIDsEEES6_SaIS6_ENS_9_IdentityESt8equal_toIS6_ESt4hashIS6_ENS_18_Mod_range_hashingENS_20_Default_ranged_hashENS_20_Prime_rehash_policyENS_17_Hashtable_traitsILb1ELb1ELb1EEELb1EEC1Ev,_ZNSt8__detail9_Map_baseINSt7__cxx1112basic_stringIDsSt11char_traitsIDsESaIDsEEES6_SaIS6_ENS_9_IdentityESt8equal_toIS6_ESt4hashIS6_ENS_18_Mod_range_hashingENS_20_Default_ranged_hashENS_20_Prime_rehash_policyENS_17_Hashtable_traitsILb1ELb1ELb1EEELb1EEC2Ev
	.section	.text._ZNSt8__detail12_Insert_baseINSt7__cxx1112basic_stringIDsSt11char_traitsIDsESaIDsEEES6_SaIS6_ENS_9_IdentityESt8equal_toIS6_ESt4hashIS6_ENS_18_Mod_range_hashingENS_20_Default_ranged_hashENS_20_Prime_rehash_policyENS_17_Hashtable_traitsILb1ELb1ELb1EEEEC2Ev,"axG",@progbits,_ZNSt8__detail12_Insert_baseINSt7__cxx1112basic_stringIDsSt11char_traitsIDsESaIDsEEES6_SaIS6_ENS_9_IdentityESt8equal_toIS6_ESt4hashIS6_ENS_18_Mod_range_hashingENS_20_Default_ranged_hashENS_20_Prime_rehash_policyENS_17_Hashtable_traitsILb1ELb1ELb1EEEEC5Ev,comdat
	.align 2
	.weak	_ZNSt8__detail12_Insert_baseINSt7__cxx1112basic_stringIDsSt11char_traitsIDsESaIDsEEES6_SaIS6_ENS_9_IdentityESt8equal_toIS6_ESt4hashIS6_ENS_18_Mod_range_hashingENS_20_Default_ranged_hashENS_20_Prime_rehash_policyENS_17_Hashtable_traitsILb1ELb1ELb1EEEEC2Ev
	.type	_ZNSt8__detail12_Insert_baseINSt7__cxx1112basic_stringIDsSt11char_traitsIDsESaIDsEEES6_SaIS6_ENS_9_IdentityESt8equal_toIS6_ESt4hashIS6_ENS_18_Mod_range_hashingENS_20_Default_ranged_hashENS_20_Prime_rehash_policyENS_17_Hashtable_traitsILb1ELb1ELb1EEEEC2Ev, @function
_ZNSt8__detail12_Insert_baseINSt7__cxx1112basic_stringIDsSt11char_traitsIDsESaIDsEEES6_SaIS6_ENS_9_IdentityESt8equal_toIS6_ESt4hashIS6_ENS_18_Mod_range_hashingENS_20_Default_ranged_hashENS_20_Prime_rehash_policyENS_17_Hashtable_traitsILb1ELb1ELb1EEEEC2Ev:
.LFB8148:
	.cfi_startproc
	pushq	%rbp
	.cfi_def_cfa_offset 16
	.cfi_offset 6, -16
	movq	%rsp, %rbp
	.cfi_def_cfa_register 6
	movq	%rdi, -8(%rbp)
	nop
	popq	%rbp
	.cfi_def_cfa 7, 8
	ret
	.cfi_endproc
.LFE8148:
	.size	_ZNSt8__detail12_Insert_baseINSt7__cxx1112basic_stringIDsSt11char_traitsIDsESaIDsEEES6_SaIS6_ENS_9_IdentityESt8equal_toIS6_ESt4hashIS6_ENS_18_Mod_range_hashingENS_20_Default_ranged_hashENS_20_Prime_rehash_policyENS_17_Hashtable_traitsILb1ELb1ELb1EEEEC2Ev, .-_ZNSt8__detail12_Insert_baseINSt7__cxx1112basic_stringIDsSt11char_traitsIDsESaIDsEEES6_SaIS6_ENS_9_IdentityESt8equal_toIS6_ESt4hashIS6_ENS_18_Mod_range_hashingENS_20_Default_ranged_hashENS_20_Prime_rehash_policyENS_17_Hashtable_traitsILb1ELb1ELb1EEEEC2Ev
	.weak	_ZNSt8__detail12_Insert_baseINSt7__cxx1112basic_stringIDsSt11char_traitsIDsESaIDsEEES6_SaIS6_ENS_9_IdentityESt8equal_toIS6_ESt4hashIS6_ENS_18_Mod_range_hashingENS_20_Default_ranged_hashENS_20_Prime_rehash_policyENS_17_Hashtable_traitsILb1ELb1ELb1EEEEC1Ev
	.set	_ZNSt8__detail12_Insert_baseINSt7__cxx1112basic_stringIDsSt11char_traitsIDsESaIDsEEES6_SaIS6_ENS_9_IdentityESt8equal_toIS6_ESt4hashIS6_ENS_18_Mod_range_hashingENS_20_Default_ranged_hashENS_20_Prime_rehash_policyENS_17_Hashtable_traitsILb1ELb1ELb1EEEEC1Ev,_ZNSt8__detail12_Insert_baseINSt7__cxx1112basic_stringIDsSt11char_traitsIDsESaIDsEEES6_SaIS6_ENS_9_IdentityESt8equal_toIS6_ESt4hashIS6_ENS_18_Mod_range_hashingENS_20_Default_ranged_hashENS_20_Prime_rehash_policyENS_17_Hashtable_traitsILb1ELb1ELb1EEEEC2Ev
	.section	.text._ZNSt8__detail7_InsertINSt7__cxx1112basic_stringIDsSt11char_traitsIDsESaIDsEEES6_SaIS6_ENS_9_IdentityESt8equal_toIS6_ESt4hashIS6_ENS_18_Mod_range_hashingENS_20_Default_ranged_hashENS_20_Prime_rehash_policyENS_17_Hashtable_traitsILb1ELb1ELb1EEELb1ELb1EEC2Ev,"axG",@progbits,_ZNSt8__detail7_InsertINSt7__cxx1112basic_stringIDsSt11char_traitsIDsESaIDsEEES6_SaIS6_ENS_9_IdentityESt8equal_toIS6_ESt4hashIS6_ENS_18_Mod_range_hashingENS_20_Default_ranged_hashENS_20_Prime_rehash_policyENS_17_Hashtable_traitsILb1ELb1ELb1EEELb1ELb1EEC5Ev,comdat
	.align 2
	.weak	_ZNSt8__detail7_InsertINSt7__cxx1112basic_stringIDsSt11char_traitsIDsESaIDsEEES6_SaIS6_ENS_9_IdentityESt8equal_toIS6_ESt4hashIS6_ENS_18_Mod_range_hashingENS_20_Default_ranged_hashENS_20_Prime_rehash_policyENS_17_Hashtable_traitsILb1ELb1ELb1EEELb1ELb1EEC2Ev
	.type	_ZNSt8__detail7_InsertINSt7__cxx1112basic_stringIDsSt11char_traitsIDsESaIDsEEES6_SaIS6_ENS_9_IdentityESt8equal_toIS6_ESt4hashIS6_ENS_18_Mod_range_hashingENS_20_Default_ranged_hashENS_20_Prime_rehash_policyENS_17_Hashtable_traitsILb1ELb1ELb1EEELb1ELb1EEC2Ev, @function
_ZNSt8__detail7_InsertINSt7__cxx1112basic_stringIDsSt11char_traitsIDsESaIDsEEES6_SaIS6_ENS_9_IdentityESt8equal_toIS6_ESt4hashIS6_ENS_18_Mod_range_hashingENS_20_Default_ranged_hashENS_20_Prime_rehash_policyENS_17_Hashtable_traitsILb1ELb1ELb1EEELb1ELb1EEC2Ev:
.LFB8150:
	.cfi_startproc
	pushq	%rbp
	.cfi_def_cfa_offset 16
	.cfi_offset 6, -16
	movq	%rsp, %rbp
	.cfi_def_cfa_register 6
	subq	$16, %rsp
	movq	%rdi, -8(%rbp)
	movq	-8(%rbp), %rax
	movq	%rax, %rdi
	call	_ZNSt8__detail12_Insert_baseINSt7__cxx1112basic_stringIDsSt11char_traitsIDsESaIDsEEES6_SaIS6_ENS_9_IdentityESt8equal_toIS6_ESt4hashIS6_ENS_18_Mod_range_hashingENS_20_Default_ranged_hashENS_20_Prime_rehash_policyENS_17_Hashtable_traitsILb1ELb1ELb1EEEEC2Ev
	nop
	leave
	.cfi_def_cfa 7, 8
	ret
	.cfi_endproc
.LFE8150:
	.size	_ZNSt8__detail7_InsertINSt7__cxx1112basic_stringIDsSt11char_traitsIDsESaIDsEEES6_SaIS6_ENS_9_IdentityESt8equal_toIS6_ESt4hashIS6_ENS_18_Mod_range_hashingENS_20_Default_ranged_hashENS_20_Prime_rehash_policyENS_17_Hashtable_traitsILb1ELb1ELb1EEELb1ELb1EEC2Ev, .-_ZNSt8__detail7_InsertINSt7__cxx1112basic_stringIDsSt11char_traitsIDsESaIDsEEES6_SaIS6_ENS_9_IdentityESt8equal_toIS6_ESt4hashIS6_ENS_18_Mod_range_hashingENS_20_Default_ranged_hashENS_20_Prime_rehash_policyENS_17_Hashtable_traitsILb1ELb1ELb1EEELb1ELb1EEC2Ev
	.weak	_ZNSt8__detail7_InsertINSt7__cxx1112basic_stringIDsSt11char_traitsIDsESaIDsEEES6_SaIS6_ENS_9_IdentityESt8equal_toIS6_ESt4hashIS6_ENS_18_Mod_range_hashingENS_20_Default_ranged_hashENS_20_Prime_rehash_policyENS_17_Hashtable_traitsILb1ELb1ELb1EEELb1ELb1EEC1Ev
	.set	_ZNSt8__detail7_InsertINSt7__cxx1112basic_stringIDsSt11char_traitsIDsESaIDsEEES6_SaIS6_ENS_9_IdentityESt8equal_toIS6_ESt4hashIS6_ENS_18_Mod_range_hashingENS_20_Default_ranged_hashENS_20_Prime_rehash_policyENS_17_Hashtable_traitsILb1ELb1ELb1EEELb1ELb1EEC1Ev,_ZNSt8__detail7_InsertINSt7__cxx1112basic_stringIDsSt11char_traitsIDsESaIDsEEES6_SaIS6_ENS_9_IdentityESt8equal_toIS6_ESt4hashIS6_ENS_18_Mod_range_hashingENS_20_Default_ranged_hashENS_20_Prime_rehash_policyENS_17_Hashtable_traitsILb1ELb1ELb1EEELb1ELb1EEC2Ev
	.section	.text._ZNSt8__detail12_Rehash_baseINSt7__cxx1112basic_stringIDsSt11char_traitsIDsESaIDsEEES6_SaIS6_ENS_9_IdentityESt8equal_toIS6_ESt4hashIS6_ENS_18_Mod_range_hashingENS_20_Default_ranged_hashENS_20_Prime_rehash_policyENS_17_Hashtable_traitsILb1ELb1ELb1EEEEC2Ev,"axG",@progbits,_ZNSt8__detail12_Rehash_baseINSt7__cxx1112basic_stringIDsSt11char_traitsIDsESaIDsEEES6_SaIS6_ENS_9_IdentityESt8equal_toIS6_ESt4hashIS6_ENS_18_Mod_range_hashingENS_20_Default_ranged_hashENS_20_Prime_rehash_policyENS_17_Hashtable_traitsILb1ELb1ELb1EEEEC5Ev,comdat
	.align 2
	.weak	_ZNSt8__detail12_Rehash_baseINSt7__cxx1112basic_stringIDsSt11char_traitsIDsESaIDsEEES6_SaIS6_ENS_9_IdentityESt8equal_toIS6_ESt4hashIS6_ENS_18_Mod_range_hashingENS_20_Default_ranged_hashENS_20_Prime_rehash_policyENS_17_Hashtable_traitsILb1ELb1ELb1EEEEC2Ev
	.type	_ZNSt8__detail12_Rehash_baseINSt7__cxx1112basic_stringIDsSt11char_traitsIDsESaIDsEEES6_SaIS6_ENS_9_IdentityESt8equal_toIS6_ESt4hashIS6_ENS_18_Mod_range_hashingENS_20_Default_ranged_hashENS_20_Prime_rehash_policyENS_17_Hashtable_traitsILb1ELb1ELb1EEEEC2Ev, @function
_ZNSt8__detail12_Rehash_baseINSt7__cxx1112basic_stringIDsSt11char_traitsIDsESaIDsEEES6_SaIS6_ENS_9_IdentityESt8equal_toIS6_ESt4hashIS6_ENS_18_Mod_range_hashingENS_20_Default_ranged_hashENS_20_Prime_rehash_policyENS_17_Hashtable_traitsILb1ELb1ELb1EEEEC2Ev:
.LFB8153:
	.cfi_startproc
	pushq	%rbp
	.cfi_def_cfa_offset 16
	.cfi_offset 6, -16
	movq	%rsp, %rbp
	.cfi_def_cfa_register 6
	movq	%rdi, -8(%rbp)
	nop
	popq	%rbp
	.cfi_def_cfa 7, 8
	ret
	.cfi_endproc
.LFE8153:
	.size	_ZNSt8__detail12_Rehash_baseINSt7__cxx1112basic_stringIDsSt11char_traitsIDsESaIDsEEES6_SaIS6_ENS_9_IdentityESt8equal_toIS6_ESt4hashIS6_ENS_18_Mod_range_hashingENS_20_Default_ranged_hashENS_20_Prime_rehash_policyENS_17_Hashtable_traitsILb1ELb1ELb1EEEEC2Ev, .-_ZNSt8__detail12_Rehash_baseINSt7__cxx1112basic_stringIDsSt11char_traitsIDsESaIDsEEES6_SaIS6_ENS_9_IdentityESt8equal_toIS6_ESt4hashIS6_ENS_18_Mod_range_hashingENS_20_Default_ranged_hashENS_20_Prime_rehash_policyENS_17_Hashtable_traitsILb1ELb1ELb1EEEEC2Ev
	.weak	_ZNSt8__detail12_Rehash_baseINSt7__cxx1112basic_stringIDsSt11char_traitsIDsESaIDsEEES6_SaIS6_ENS_9_IdentityESt8equal_toIS6_ESt4hashIS6_ENS_18_Mod_range_hashingENS_20_Default_ranged_hashENS_20_Prime_rehash_policyENS_17_Hashtable_traitsILb1ELb1ELb1EEEEC1Ev
	.set	_ZNSt8__detail12_Rehash_baseINSt7__cxx1112basic_stringIDsSt11char_traitsIDsESaIDsEEES6_SaIS6_ENS_9_IdentityESt8equal_toIS6_ESt4hashIS6_ENS_18_Mod_range_hashingENS_20_Default_ranged_hashENS_20_Prime_rehash_policyENS_17_Hashtable_traitsILb1ELb1ELb1EEEEC1Ev,_ZNSt8__detail12_Rehash_baseINSt7__cxx1112basic_stringIDsSt11char_traitsIDsESaIDsEEES6_SaIS6_ENS_9_IdentityESt8equal_toIS6_ESt4hashIS6_ENS_18_Mod_range_hashingENS_20_Default_ranged_hashENS_20_Prime_rehash_policyENS_17_Hashtable_traitsILb1ELb1ELb1EEEEC2Ev
	.section	.text._ZNSt8__detail9_EqualityINSt7__cxx1112basic_stringIDsSt11char_traitsIDsESaIDsEEES6_SaIS6_ENS_9_IdentityESt8equal_toIS6_ESt4hashIS6_ENS_18_Mod_range_hashingENS_20_Default_ranged_hashENS_20_Prime_rehash_policyENS_17_Hashtable_traitsILb1ELb1ELb1EEELb1EEC2Ev,"axG",@progbits,_ZNSt8__detail9_EqualityINSt7__cxx1112basic_stringIDsSt11char_traitsIDsESaIDsEEES6_SaIS6_ENS_9_IdentityESt8equal_toIS6_ESt4hashIS6_ENS_18_Mod_range_hashingENS_20_Default_ranged_hashENS_20_Prime_rehash_policyENS_17_Hashtable_traitsILb1ELb1ELb1EEELb1EEC5Ev,comdat
	.align 2
	.weak	_ZNSt8__detail9_EqualityINSt7__cxx1112basic_stringIDsSt11char_traitsIDsESaIDsEEES6_SaIS6_ENS_9_IdentityESt8equal_toIS6_ESt4hashIS6_ENS_18_Mod_range_hashingENS_20_Default_ranged_hashENS_20_Prime_rehash_policyENS_17_Hashtable_traitsILb1ELb1ELb1EEELb1EEC2Ev
	.type	_ZNSt8__detail9_EqualityINSt7__cxx1112basic_stringIDsSt11char_traitsIDsESaIDsEEES6_SaIS6_ENS_9_IdentityESt8equal_toIS6_ESt4hashIS6_ENS_18_Mod_range_hashingENS_20_Default_ranged_hashENS_20_Prime_rehash_policyENS_17_Hashtable_traitsILb1ELb1ELb1EEELb1EEC2Ev, @function
_ZNSt8__detail9_EqualityINSt7__cxx1112basic_stringIDsSt11char_traitsIDsESaIDsEEES6_SaIS6_ENS_9_IdentityESt8equal_toIS6_ESt4hashIS6_ENS_18_Mod_range_hashingENS_20_Default_ranged_hashENS_20_Prime_rehash_policyENS_17_Hashtable_traitsILb1ELb1ELb1EEELb1EEC2Ev:
.LFB8156:
	.cfi_startproc
	pushq	%rbp
	.cfi_def_cfa_offset 16
	.cfi_offset 6, -16
	movq	%rsp, %rbp
	.cfi_def_cfa_register 6
	movq	%rdi, -8(%rbp)
	nop
	popq	%rbp
	.cfi_def_cfa 7, 8
	ret
	.cfi_endproc
.LFE8156:
	.size	_ZNSt8__detail9_EqualityINSt7__cxx1112basic_stringIDsSt11char_traitsIDsESaIDsEEES6_SaIS6_ENS_9_IdentityESt8equal_toIS6_ESt4hashIS6_ENS_18_Mod_range_hashingENS_20_Default_ranged_hashENS_20_Prime_rehash_policyENS_17_Hashtable_traitsILb1ELb1ELb1EEELb1EEC2Ev, .-_ZNSt8__detail9_EqualityINSt7__cxx1112basic_stringIDsSt11char_traitsIDsESaIDsEEES6_SaIS6_ENS_9_IdentityESt8equal_toIS6_ESt4hashIS6_ENS_18_Mod_range_hashingENS_20_Default_ranged_hashENS_20_Prime_rehash_policyENS_17_Hashtable_traitsILb1ELb1ELb1EEELb1EEC2Ev
	.weak	_ZNSt8__detail9_EqualityINSt7__cxx1112basic_stringIDsSt11char_traitsIDsESaIDsEEES6_SaIS6_ENS_9_IdentityESt8equal_toIS6_ESt4hashIS6_ENS_18_Mod_range_hashingENS_20_Default_ranged_hashENS_20_Prime_rehash_policyENS_17_Hashtable_traitsILb1ELb1ELb1EEELb1EEC1Ev
	.set	_ZNSt8__detail9_EqualityINSt7__cxx1112basic_stringIDsSt11char_traitsIDsESaIDsEEES6_SaIS6_ENS_9_IdentityESt8equal_toIS6_ESt4hashIS6_ENS_18_Mod_range_hashingENS_20_Default_ranged_hashENS_20_Prime_rehash_policyENS_17_Hashtable_traitsILb1ELb1ELb1EEELb1EEC1Ev,_ZNSt8__detail9_EqualityINSt7__cxx1112basic_stringIDsSt11char_traitsIDsESaIDsEEES6_SaIS6_ENS_9_IdentityESt8equal_toIS6_ESt4hashIS6_ENS_18_Mod_range_hashingENS_20_Default_ranged_hashENS_20_Prime_rehash_policyENS_17_Hashtable_traitsILb1ELb1ELb1EEELb1EEC2Ev
	.section	.text._ZNSt8__detail21_Hashtable_ebo_helperILi0ESaINS_10_Hash_nodeINSt7__cxx1112basic_stringIDsSt11char_traitsIDsESaIDsEEELb1EEEELb1EEC2Ev,"axG",@progbits,_ZNSt8__detail21_Hashtable_ebo_helperILi0ESaINS_10_Hash_nodeINSt7__cxx1112basic_stringIDsSt11char_traitsIDsESaIDsEEELb1EEEELb1EEC5Ev,comdat
	.align 2
	.weak	_ZNSt8__detail21_Hashtable_ebo_helperILi0ESaINS_10_Hash_nodeINSt7__cxx1112basic_stringIDsSt11char_traitsIDsESaIDsEEELb1EEEELb1EEC2Ev
	.type	_ZNSt8__detail21_Hashtable_ebo_helperILi0ESaINS_10_Hash_nodeINSt7__cxx1112basic_stringIDsSt11char_traitsIDsESaIDsEEELb1EEEELb1EEC2Ev, @function
_ZNSt8__detail21_Hashtable_ebo_helperILi0ESaINS_10_Hash_nodeINSt7__cxx1112basic_stringIDsSt11char_traitsIDsESaIDsEEELb1EEEELb1EEC2Ev:
.LFB8160:
	.cfi_startproc
	pushq	%rbp
	.cfi_def_cfa_offset 16
	.cfi_offset 6, -16
	movq	%rsp, %rbp
	.cfi_def_cfa_register 6
	subq	$16, %rsp
	movq	%rdi, -8(%rbp)
	movq	-8(%rbp), %rax
	movq	%rax, %rdi
	call	_ZNSaINSt8__detail10_Hash_nodeINSt7__cxx1112basic_stringIDsSt11char_traitsIDsESaIDsEEELb1EEEEC2Ev
	nop
	leave
	.cfi_def_cfa 7, 8
	ret
	.cfi_endproc
.LFE8160:
	.size	_ZNSt8__detail21_Hashtable_ebo_helperILi0ESaINS_10_Hash_nodeINSt7__cxx1112basic_stringIDsSt11char_traitsIDsESaIDsEEELb1EEEELb1EEC2Ev, .-_ZNSt8__detail21_Hashtable_ebo_helperILi0ESaINS_10_Hash_nodeINSt7__cxx1112basic_stringIDsSt11char_traitsIDsESaIDsEEELb1EEEELb1EEC2Ev
	.weak	_ZNSt8__detail21_Hashtable_ebo_helperILi0ESaINS_10_Hash_nodeINSt7__cxx1112basic_stringIDsSt11char_traitsIDsESaIDsEEELb1EEEELb1EEC1Ev
	.set	_ZNSt8__detail21_Hashtable_ebo_helperILi0ESaINS_10_Hash_nodeINSt7__cxx1112basic_stringIDsSt11char_traitsIDsESaIDsEEELb1EEEELb1EEC1Ev,_ZNSt8__detail21_Hashtable_ebo_helperILi0ESaINS_10_Hash_nodeINSt7__cxx1112basic_stringIDsSt11char_traitsIDsESaIDsEEELb1EEEELb1EEC2Ev
	.section	.text._ZNSt8__detail21_Hashtable_ebo_helperILi0ESaINS_10_Hash_nodeINSt7__cxx1112basic_stringIDsSt11char_traitsIDsESaIDsEEELb1EEEELb1EED2Ev,"axG",@progbits,_ZNSt8__detail21_Hashtable_ebo_helperILi0ESaINS_10_Hash_nodeINSt7__cxx1112basic_stringIDsSt11char_traitsIDsESaIDsEEELb1EEEELb1EED5Ev,comdat
	.align 2
	.weak	_ZNSt8__detail21_Hashtable_ebo_helperILi0ESaINS_10_Hash_nodeINSt7__cxx1112basic_stringIDsSt11char_traitsIDsESaIDsEEELb1EEEELb1EED2Ev
	.type	_ZNSt8__detail21_Hashtable_ebo_helperILi0ESaINS_10_Hash_nodeINSt7__cxx1112basic_stringIDsSt11char_traitsIDsESaIDsEEELb1EEEELb1EED2Ev, @function
_ZNSt8__detail21_Hashtable_ebo_helperILi0ESaINS_10_Hash_nodeINSt7__cxx1112basic_stringIDsSt11char_traitsIDsESaIDsEEELb1EEEELb1EED2Ev:
.LFB8163:
	.cfi_startproc
	pushq	%rbp
	.cfi_def_cfa_offset 16
	.cfi_offset 6, -16
	movq	%rsp, %rbp
	.cfi_def_cfa_register 6
	subq	$16, %rsp
	movq	%rdi, -8(%rbp)
	movq	-8(%rbp), %rax
	movq	%rax, %rdi
	call	_ZNSaINSt8__detail10_Hash_nodeINSt7__cxx1112basic_stringIDsSt11char_traitsIDsESaIDsEEELb1EEEED2Ev
	nop
	leave
	.cfi_def_cfa 7, 8
	ret
	.cfi_endproc
.LFE8163:
	.size	_ZNSt8__detail21_Hashtable_ebo_helperILi0ESaINS_10_Hash_nodeINSt7__cxx1112basic_stringIDsSt11char_traitsIDsESaIDsEEELb1EEEELb1EED2Ev, .-_ZNSt8__detail21_Hashtable_ebo_helperILi0ESaINS_10_Hash_nodeINSt7__cxx1112basic_stringIDsSt11char_traitsIDsESaIDsEEELb1EEEELb1EED2Ev
	.weak	_ZNSt8__detail21_Hashtable_ebo_helperILi0ESaINS_10_Hash_nodeINSt7__cxx1112basic_stringIDsSt11char_traitsIDsESaIDsEEELb1EEEELb1EED1Ev
	.set	_ZNSt8__detail21_Hashtable_ebo_helperILi0ESaINS_10_Hash_nodeINSt7__cxx1112basic_stringIDsSt11char_traitsIDsESaIDsEEELb1EEEELb1EED1Ev,_ZNSt8__detail21_Hashtable_ebo_helperILi0ESaINS_10_Hash_nodeINSt7__cxx1112basic_stringIDsSt11char_traitsIDsESaIDsEEELb1EEEELb1EED2Ev
	.section	.text._ZNSt8__detail16_Hashtable_allocISaINS_10_Hash_nodeINSt7__cxx1112basic_stringIDsSt11char_traitsIDsESaIDsEEELb1EEEEEC2Ev,"axG",@progbits,_ZNSt8__detail16_Hashtable_allocISaINS_10_Hash_nodeINSt7__cxx1112basic_stringIDsSt11char_traitsIDsESaIDsEEELb1EEEEEC5Ev,comdat
	.align 2
	.weak	_ZNSt8__detail16_Hashtable_allocISaINS_10_Hash_nodeINSt7__cxx1112basic_stringIDsSt11char_traitsIDsESaIDsEEELb1EEEEEC2Ev
	.type	_ZNSt8__detail16_Hashtable_allocISaINS_10_Hash_nodeINSt7__cxx1112basic_stringIDsSt11char_traitsIDsESaIDsEEELb1EEEEEC2Ev, @function
_ZNSt8__detail16_Hashtable_allocISaINS_10_Hash_nodeINSt7__cxx1112basic_stringIDsSt11char_traitsIDsESaIDsEEELb1EEEEEC2Ev:
.LFB8165:
	.cfi_startproc
	pushq	%rbp
	.cfi_def_cfa_offset 16
	.cfi_offset 6, -16
	movq	%rsp, %rbp
	.cfi_def_cfa_register 6
	subq	$16, %rsp
	movq	%rdi, -8(%rbp)
	movq	-8(%rbp), %rax
	movq	%rax, %rdi
	call	_ZNSt8__detail21_Hashtable_ebo_helperILi0ESaINS_10_Hash_nodeINSt7__cxx1112basic_stringIDsSt11char_traitsIDsESaIDsEEELb1EEEELb1EEC2Ev
	nop
	leave
	.cfi_def_cfa 7, 8
	ret
	.cfi_endproc
.LFE8165:
	.size	_ZNSt8__detail16_Hashtable_allocISaINS_10_Hash_nodeINSt7__cxx1112basic_stringIDsSt11char_traitsIDsESaIDsEEELb1EEEEEC2Ev, .-_ZNSt8__detail16_Hashtable_allocISaINS_10_Hash_nodeINSt7__cxx1112basic_stringIDsSt11char_traitsIDsESaIDsEEELb1EEEEEC2Ev
	.weak	_ZNSt8__detail16_Hashtable_allocISaINS_10_Hash_nodeINSt7__cxx1112basic_stringIDsSt11char_traitsIDsESaIDsEEELb1EEEEEC1Ev
	.set	_ZNSt8__detail16_Hashtable_allocISaINS_10_Hash_nodeINSt7__cxx1112basic_stringIDsSt11char_traitsIDsESaIDsEEELb1EEEEEC1Ev,_ZNSt8__detail16_Hashtable_allocISaINS_10_Hash_nodeINSt7__cxx1112basic_stringIDsSt11char_traitsIDsESaIDsEEELb1EEEEEC2Ev
	.section	.text._ZNSt8__detail16_Hashtable_allocISaINS_10_Hash_nodeINSt7__cxx1112basic_stringIDsSt11char_traitsIDsESaIDsEEELb1EEEEED2Ev,"axG",@progbits,_ZNSt8__detail16_Hashtable_allocISaINS_10_Hash_nodeINSt7__cxx1112basic_stringIDsSt11char_traitsIDsESaIDsEEELb1EEEEED5Ev,comdat
	.align 2
	.weak	_ZNSt8__detail16_Hashtable_allocISaINS_10_Hash_nodeINSt7__cxx1112basic_stringIDsSt11char_traitsIDsESaIDsEEELb1EEEEED2Ev
	.type	_ZNSt8__detail16_Hashtable_allocISaINS_10_Hash_nodeINSt7__cxx1112basic_stringIDsSt11char_traitsIDsESaIDsEEELb1EEEEED2Ev, @function
_ZNSt8__detail16_Hashtable_allocISaINS_10_Hash_nodeINSt7__cxx1112basic_stringIDsSt11char_traitsIDsESaIDsEEELb1EEEEED2Ev:
.LFB8168:
	.cfi_startproc
	pushq	%rbp
	.cfi_def_cfa_offset 16
	.cfi_offset 6, -16
	movq	%rsp, %rbp
	.cfi_def_cfa_register 6
	subq	$16, %rsp
	movq	%rdi, -8(%rbp)
	movq	-8(%rbp), %rax
	movq	%rax, %rdi
	call	_ZNSt8__detail21_Hashtable_ebo_helperILi0ESaINS_10_Hash_nodeINSt7__cxx1112basic_stringIDsSt11char_traitsIDsESaIDsEEELb1EEEELb1EED2Ev
	nop
	leave
	.cfi_def_cfa 7, 8
	ret
	.cfi_endproc
.LFE8168:
	.size	_ZNSt8__detail16_Hashtable_allocISaINS_10_Hash_nodeINSt7__cxx1112basic_stringIDsSt11char_traitsIDsESaIDsEEELb1EEEEED2Ev, .-_ZNSt8__detail16_Hashtable_allocISaINS_10_Hash_nodeINSt7__cxx1112basic_stringIDsSt11char_traitsIDsESaIDsEEELb1EEEEED2Ev
	.weak	_ZNSt8__detail16_Hashtable_allocISaINS_10_Hash_nodeINSt7__cxx1112basic_stringIDsSt11char_traitsIDsESaIDsEEELb1EEEEED1Ev
	.set	_ZNSt8__detail16_Hashtable_allocISaINS_10_Hash_nodeINSt7__cxx1112basic_stringIDsSt11char_traitsIDsESaIDsEEELb1EEEEED1Ev,_ZNSt8__detail16_Hashtable_allocISaINS_10_Hash_nodeINSt7__cxx1112basic_stringIDsSt11char_traitsIDsESaIDsEEELb1EEEEED2Ev
	.section	.text._ZNSt10_HashtableINSt7__cxx1112basic_stringIDsSt11char_traitsIDsESaIDsEEES5_SaIS5_ENSt8__detail9_IdentityESt8equal_toIS5_ESt4hashIS5_ENS7_18_Mod_range_hashingENS7_20_Default_ranged_hashENS7_20_Prime_rehash_policyENS7_17_Hashtable_traitsILb1ELb1ELb1EEEEC2Ev,"axG",@progbits,_ZNSt10_HashtableINSt7__cxx1112basic_stringIDsSt11char_traitsIDsESaIDsEEES5_SaIS5_ENSt8__detail9_IdentityESt8equal_toIS5_ESt4hashIS5_ENS7_18_Mod_range_hashingENS7_20_Default_ranged_hashENS7_20_Prime_rehash_policyENS7_17_Hashtable_traitsILb1ELb1ELb1EEEEC5Ev,comdat
	.align 2
	.weak	_ZNSt10_HashtableINSt7__cxx1112basic_stringIDsSt11char_traitsIDsESaIDsEEES5_SaIS5_ENSt8__detail9_IdentityESt8equal_toIS5_ESt4hashIS5_ENS7_18_Mod_range_hashingENS7_20_Default_ranged_hashENS7_20_Prime_rehash_policyENS7_17_Hashtable_traitsILb1ELb1ELb1EEEEC2Ev
	.type	_ZNSt10_HashtableINSt7__cxx1112basic_stringIDsSt11char_traitsIDsESaIDsEEES5_SaIS5_ENSt8__detail9_IdentityESt8equal_toIS5_ESt4hashIS5_ENS7_18_Mod_range_hashingENS7_20_Default_ranged_hashENS7_20_Prime_rehash_policyENS7_17_Hashtable_traitsILb1ELb1ELb1EEEEC2Ev, @function
_ZNSt10_HashtableINSt7__cxx1112basic_stringIDsSt11char_traitsIDsESaIDsEEES5_SaIS5_ENSt8__detail9_IdentityESt8equal_toIS5_ESt4hashIS5_ENS7_18_Mod_range_hashingENS7_20_Default_ranged_hashENS7_20_Prime_rehash_policyENS7_17_Hashtable_traitsILb1ELb1ELb1EEEEC2Ev:
.LFB8170:
	.cfi_startproc
	pushq	%rbp
	.cfi_def_cfa_offset 16
	.cfi_offset 6, -16
	movq	%rsp, %rbp
	.cfi_def_cfa_register 6
	subq	$16, %rsp
	movq	%rdi, -8(%rbp)
	movq	-8(%rbp), %rax
	movq	%rax, %rdi
	call	_ZNSt8__detail15_Hashtable_baseINSt7__cxx1112basic_stringIDsSt11char_traitsIDsESaIDsEEES6_NS_9_IdentityESt8equal_toIS6_ESt4hashIS6_ENS_18_Mod_range_hashingENS_20_Default_ranged_hashENS_17_Hashtable_traitsILb1ELb1ELb1EEEEC2Ev
	movq	-8(%rbp), %rax
	movq	%rax, %rdi
	call	_ZNSt8__detail9_Map_baseINSt7__cxx1112basic_stringIDsSt11char_traitsIDsESaIDsEEES6_SaIS6_ENS_9_IdentityESt8equal_toIS6_ESt4hashIS6_ENS_18_Mod_range_hashingENS_20_Default_ranged_hashENS_20_Prime_rehash_policyENS_17_Hashtable_traitsILb1ELb1ELb1EEELb1EEC2Ev
	movq	-8(%rbp), %rax
	movq	%rax, %rdi
	call	_ZNSt8__detail7_InsertINSt7__cxx1112basic_stringIDsSt11char_traitsIDsESaIDsEEES6_SaIS6_ENS_9_IdentityESt8equal_toIS6_ESt4hashIS6_ENS_18_Mod_range_hashingENS_20_Default_ranged_hashENS_20_Prime_rehash_policyENS_17_Hashtable_traitsILb1ELb1ELb1EEELb1ELb1EEC2Ev
	movq	-8(%rbp), %rax
	movq	%rax, %rdi
	call	_ZNSt8__detail12_Rehash_baseINSt7__cxx1112basic_stringIDsSt11char_traitsIDsESaIDsEEES6_SaIS6_ENS_9_IdentityESt8equal_toIS6_ESt4hashIS6_ENS_18_Mod_range_hashingENS_20_Default_ranged_hashENS_20_Prime_rehash_policyENS_17_Hashtable_traitsILb1ELb1ELb1EEEEC2Ev
	movq	-8(%rbp), %rax
	movq	%rax, %rdi
	call	_ZNSt8__detail9_EqualityINSt7__cxx1112basic_stringIDsSt11char_traitsIDsESaIDsEEES6_SaIS6_ENS_9_IdentityESt8equal_toIS6_ESt4hashIS6_ENS_18_Mod_range_hashingENS_20_Default_ranged_hashENS_20_Prime_rehash_policyENS_17_Hashtable_traitsILb1ELb1ELb1EEELb1EEC2Ev
	movq	-8(%rbp), %rax
	movq	%rax, %rdi
	call	_ZNSt8__detail16_Hashtable_allocISaINS_10_Hash_nodeINSt7__cxx1112basic_stringIDsSt11char_traitsIDsESaIDsEEELb1EEEEEC2Ev
	movq	-8(%rbp), %rax
	leaq	48(%rax), %rdx
	movq	-8(%rbp), %rax
	movq	%rdx, (%rax)
	movq	-8(%rbp), %rax
	movq	$1, 8(%rax)
	movq	-8(%rbp), %rax
	addq	$16, %rax
	movq	%rax, %rdi
	call	_ZNSt8__detail15_Hash_node_baseC1Ev
	movq	-8(%rbp), %rax
	movq	$0, 24(%rax)
	movq	-8(%rbp), %rax
	addq	$32, %rax
	movss	.LC9(%rip), %xmm0
	movq	%rax, %rdi
	call	_ZNSt8__detail20_Prime_rehash_policyC1Ef
	movq	-8(%rbp), %rax
	movq	$0, 48(%rax)
	nop
	leave
	.cfi_def_cfa 7, 8
	ret
	.cfi_endproc
.LFE8170:
	.size	_ZNSt10_HashtableINSt7__cxx1112basic_stringIDsSt11char_traitsIDsESaIDsEEES5_SaIS5_ENSt8__detail9_IdentityESt8equal_toIS5_ESt4hashIS5_ENS7_18_Mod_range_hashingENS7_20_Default_ranged_hashENS7_20_Prime_rehash_policyENS7_17_Hashtable_traitsILb1ELb1ELb1EEEEC2Ev, .-_ZNSt10_HashtableINSt7__cxx1112basic_stringIDsSt11char_traitsIDsESaIDsEEES5_SaIS5_ENSt8__detail9_IdentityESt8equal_toIS5_ESt4hashIS5_ENS7_18_Mod_range_hashingENS7_20_Default_ranged_hashENS7_20_Prime_rehash_policyENS7_17_Hashtable_traitsILb1ELb1ELb1EEEEC2Ev
	.weak	_ZNSt10_HashtableINSt7__cxx1112basic_stringIDsSt11char_traitsIDsESaIDsEEES5_SaIS5_ENSt8__detail9_IdentityESt8equal_toIS5_ESt4hashIS5_ENS7_18_Mod_range_hashingENS7_20_Default_ranged_hashENS7_20_Prime_rehash_policyENS7_17_Hashtable_traitsILb1ELb1ELb1EEEEC1Ev
	.set	_ZNSt10_HashtableINSt7__cxx1112basic_stringIDsSt11char_traitsIDsESaIDsEEES5_SaIS5_ENSt8__detail9_IdentityESt8equal_toIS5_ESt4hashIS5_ENS7_18_Mod_range_hashingENS7_20_Default_ranged_hashENS7_20_Prime_rehash_policyENS7_17_Hashtable_traitsILb1ELb1ELb1EEEEC1Ev,_ZNSt10_HashtableINSt7__cxx1112basic_stringIDsSt11char_traitsIDsESaIDsEEES5_SaIS5_ENSt8__detail9_IdentityESt8equal_toIS5_ESt4hashIS5_ENS7_18_Mod_range_hashingENS7_20_Default_ranged_hashENS7_20_Prime_rehash_policyENS7_17_Hashtable_traitsILb1ELb1ELb1EEEEC2Ev
	.section	.text._ZNSt13unordered_setINSt7__cxx1112basic_stringIDsSt11char_traitsIDsESaIDsEEESt4hashIS5_ESt8equal_toIS5_ESaIS5_EEC2Ev,"axG",@progbits,_ZNSt13unordered_setINSt7__cxx1112basic_stringIDsSt11char_traitsIDsESaIDsEEESt4hashIS5_ESt8equal_toIS5_ESaIS5_EEC5Ev,comdat
	.align 2
	.weak	_ZNSt13unordered_setINSt7__cxx1112basic_stringIDsSt11char_traitsIDsESaIDsEEESt4hashIS5_ESt8equal_toIS5_ESaIS5_EEC2Ev
	.type	_ZNSt13unordered_setINSt7__cxx1112basic_stringIDsSt11char_traitsIDsESaIDsEEESt4hashIS5_ESt8equal_toIS5_ESaIS5_EEC2Ev, @function
_ZNSt13unordered_setINSt7__cxx1112basic_stringIDsSt11char_traitsIDsESaIDsEEESt4hashIS5_ESt8equal_toIS5_ESaIS5_EEC2Ev:
.LFB8172:
	.cfi_startproc
	pushq	%rbp
	.cfi_def_cfa_offset 16
	.cfi_offset 6, -16
	movq	%rsp, %rbp
	.cfi_def_cfa_register 6
	subq	$16, %rsp
	movq	%rdi, -8(%rbp)
	movq	-8(%rbp), %rax
	movq	%rax, %rdi
	call	_ZNSt10_HashtableINSt7__cxx1112basic_stringIDsSt11char_traitsIDsESaIDsEEES5_SaIS5_ENSt8__detail9_IdentityESt8equal_toIS5_ESt4hashIS5_ENS7_18_Mod_range_hashingENS7_20_Default_ranged_hashENS7_20_Prime_rehash_policyENS7_17_Hashtable_traitsILb1ELb1ELb1EEEEC1Ev
	nop
	leave
	.cfi_def_cfa 7, 8
	ret
	.cfi_endproc
.LFE8172:
	.size	_ZNSt13unordered_setINSt7__cxx1112basic_stringIDsSt11char_traitsIDsESaIDsEEESt4hashIS5_ESt8equal_toIS5_ESaIS5_EEC2Ev, .-_ZNSt13unordered_setINSt7__cxx1112basic_stringIDsSt11char_traitsIDsESaIDsEEESt4hashIS5_ESt8equal_toIS5_ESaIS5_EEC2Ev
	.weak	_ZNSt13unordered_setINSt7__cxx1112basic_stringIDsSt11char_traitsIDsESaIDsEEESt4hashIS5_ESt8equal_toIS5_ESaIS5_EEC1Ev
	.set	_ZNSt13unordered_setINSt7__cxx1112basic_stringIDsSt11char_traitsIDsESaIDsEEESt4hashIS5_ESt8equal_toIS5_ESaIS5_EEC1Ev,_ZNSt13unordered_setINSt7__cxx1112basic_stringIDsSt11char_traitsIDsESaIDsEEESt4hashIS5_ESt8equal_toIS5_ESaIS5_EEC2Ev
	.section	.text._ZNSt13unordered_setINSt7__cxx1112basic_stringIDsSt11char_traitsIDsESaIDsEEESt4hashIS5_ESt8equal_toIS5_ESaIS5_EED2Ev,"axG",@progbits,_ZNSt13unordered_setINSt7__cxx1112basic_stringIDsSt11char_traitsIDsESaIDsEEESt4hashIS5_ESt8equal_toIS5_ESaIS5_EED5Ev,comdat
	.align 2
	.weak	_ZNSt13unordered_setINSt7__cxx1112basic_stringIDsSt11char_traitsIDsESaIDsEEESt4hashIS5_ESt8equal_toIS5_ESaIS5_EED2Ev
	.type	_ZNSt13unordered_setINSt7__cxx1112basic_stringIDsSt11char_traitsIDsESaIDsEEESt4hashIS5_ESt8equal_toIS5_ESaIS5_EED2Ev, @function
_ZNSt13unordered_setINSt7__cxx1112basic_stringIDsSt11char_traitsIDsESaIDsEEESt4hashIS5_ESt8equal_toIS5_ESaIS5_EED2Ev:
.LFB8175:
	.cfi_startproc
	pushq	%rbp
	.cfi_def_cfa_offset 16
	.cfi_offset 6, -16
	movq	%rsp, %rbp
	.cfi_def_cfa_register 6
	subq	$16, %rsp
	movq	%rdi, -8(%rbp)
	movq	-8(%rbp), %rax
	movq	%rax, %rdi
	call	_ZNSt10_HashtableINSt7__cxx1112basic_stringIDsSt11char_traitsIDsESaIDsEEES5_SaIS5_ENSt8__detail9_IdentityESt8equal_toIS5_ESt4hashIS5_ENS7_18_Mod_range_hashingENS7_20_Default_ranged_hashENS7_20_Prime_rehash_policyENS7_17_Hashtable_traitsILb1ELb1ELb1EEEED1Ev
	nop
	leave
	.cfi_def_cfa 7, 8
	ret
	.cfi_endproc
.LFE8175:
	.size	_ZNSt13unordered_setINSt7__cxx1112basic_stringIDsSt11char_traitsIDsESaIDsEEESt4hashIS5_ESt8equal_toIS5_ESaIS5_EED2Ev, .-_ZNSt13unordered_setINSt7__cxx1112basic_stringIDsSt11char_traitsIDsESaIDsEEESt4hashIS5_ESt8equal_toIS5_ESaIS5_EED2Ev
	.weak	_ZNSt13unordered_setINSt7__cxx1112basic_stringIDsSt11char_traitsIDsESaIDsEEESt4hashIS5_ESt8equal_toIS5_ESaIS5_EED1Ev
	.set	_ZNSt13unordered_setINSt7__cxx1112basic_stringIDsSt11char_traitsIDsESaIDsEEESt4hashIS5_ESt8equal_toIS5_ESaIS5_EED1Ev,_ZNSt13unordered_setINSt7__cxx1112basic_stringIDsSt11char_traitsIDsESaIDsEEESt4hashIS5_ESt8equal_toIS5_ESaIS5_EED2Ev
	.section	.rodata
.LC10:
	.string	"sefrf"
	.text
	.globl	_Z15greatFindDefineNSt7__cxx1112basic_stringIDsSt11char_traitsIDsESaIDsEEEi
	.type	_Z15greatFindDefineNSt7__cxx1112basic_stringIDsSt11char_traitsIDsESaIDsEEEi, @function
_Z15greatFindDefineNSt7__cxx1112basic_stringIDsSt11char_traitsIDsESaIDsEEEi:
.LFB8104:
	.cfi_startproc
	.cfi_personality 0x3,__gxx_personality_v0
	.cfi_lsda 0x3,.LLSDA8104
	pushq	%rbp
	.cfi_def_cfa_offset 16
	.cfi_offset 6, -16
	movq	%rsp, %rbp
	.cfi_def_cfa_register 6
	pushq	%rbx
	subq	$232, %rsp
	.cfi_offset 3, -24
	movq	%rdi, -232(%rbp)
	movl	%esi, -236(%rbp)
	movq	%fs:40, %rax
	movq	%rax, -24(%rbp)
	xorl	%eax, %eax
	leaq	-192(%rbp), %rax
	movq	%rax, %rdi
	call	_ZNSt13unordered_setINSt7__cxx1112basic_stringIDsSt11char_traitsIDsESaIDsEEESt4hashIS5_ESt8equal_toIS5_ESaIS5_EEC1Ev
	cmpl	$1, -236(%rbp)
	jne	.L308
	movq	-232(%rbp), %rdx
	leaq	-192(%rbp), %rax
	movq	%rdx, %rsi
	movq	%rax, %rdi
.LEHB60:
	call	_ZNSt13unordered_setINSt7__cxx1112basic_stringIDsSt11char_traitsIDsESaIDsEEESt4hashIS5_ESt8equal_toIS5_ESaIS5_EE6insertERKS5_
.L308:
	leaq	-192(%rbp), %rax
	movq	%rax, -200(%rbp)
	movq	-200(%rbp), %rax
	movq	%rax, %rdi
	call	_ZNSt13unordered_setINSt7__cxx1112basic_stringIDsSt11char_traitsIDsESaIDsEEESt4hashIS5_ESt8equal_toIS5_ESaIS5_EE5beginEv
	movq	%rax, -224(%rbp)
	movq	-200(%rbp), %rax
	movq	%rax, %rdi
	call	_ZNSt13unordered_setINSt7__cxx1112basic_stringIDsSt11char_traitsIDsESaIDsEEESt4hashIS5_ESt8equal_toIS5_ESaIS5_EE3endEv
	movq	%rax, -208(%rbp)
.L310:
	leaq	-208(%rbp), %rdx
	leaq	-224(%rbp), %rax
	movq	%rdx, %rsi
	movq	%rax, %rdi
	call	_ZNSt8__detailneINSt7__cxx1112basic_stringIDsSt11char_traitsIDsESaIDsEEELb1EEEbRKNS_19_Node_iterator_baseIT_XT0_EEESB_
	testb	%al, %al
	je	.L309
	leaq	-224(%rbp), %rax
	movq	%rax, %rdi
	call	_ZNKSt8__detail14_Node_iteratorINSt7__cxx1112basic_stringIDsSt11char_traitsIDsESaIDsEEELb1ELb1EEdeEv
	movq	%rax, %rdx
	leaq	-128(%rbp), %rax
	movq	%rdx, %rsi
	movq	%rax, %rdi
	call	_ZNSt7__cxx1112basic_stringIDsSt11char_traitsIDsESaIDsEEC1ERKS4_
.LEHE60:
	leaq	-128(%rbp), %rdx
	leaq	-96(%rbp), %rax
	movq	%rdx, %rsi
	movq	%rax, %rdi
.LEHB61:
	call	_ZNSt7__cxx1112basic_stringIDsSt11char_traitsIDsESaIDsEEC1ERKS4_
.LEHE61:
	leaq	-64(%rbp), %rax
	leaq	-96(%rbp), %rdx
	movq	%rdx, %rsi
	movq	%rax, %rdi
.LEHB62:
	call	_Z8to_bytesNSt7__cxx1112basic_stringIDsSt11char_traitsIDsESaIDsEEE
.LEHE62:
	leaq	-64(%rbp), %rax
	movq	%rax, %rsi
	movl	$_ZSt4cout, %edi
.LEHB63:
	call	_ZStlsIcSt11char_traitsIcESaIcEERSt13basic_ostreamIT_T0_ES7_RKNSt7__cxx1112basic_stringIS4_S5_T1_EE
	movl	$.LC10, %esi
	movq	%rax, %rdi
	call	_ZStlsISt11char_traitsIcEERSt13basic_ostreamIcT_ES5_PKc
	movl	$_ZSt4endlIcSt11char_traitsIcEERSt13basic_ostreamIT_T0_ES6_, %esi
	movq	%rax, %rdi
	call	_ZNSolsEPFRSoS_E
.LEHE63:
	leaq	-64(%rbp), %rax
	movq	%rax, %rdi
	call	_ZNSt7__cxx1112basic_stringIcSt11char_traitsIcESaIcEED1Ev
	leaq	-96(%rbp), %rax
	movq	%rax, %rdi
	call	_ZNSt7__cxx1112basic_stringIDsSt11char_traitsIDsESaIDsEED1Ev
	leaq	-128(%rbp), %rax
	movq	%rax, %rdi
	call	_ZNSt7__cxx1112basic_stringIDsSt11char_traitsIDsESaIDsEED1Ev
	leaq	-224(%rbp), %rax
	movq	%rax, %rdi
	call	_ZNSt8__detail14_Node_iteratorINSt7__cxx1112basic_stringIDsSt11char_traitsIDsESaIDsEEELb1ELb1EEppEv
	jmp	.L310
.L309:
	leaq	-192(%rbp), %rax
	movq	%rax, %rdi
	call	_ZNSt13unordered_setINSt7__cxx1112basic_stringIDsSt11char_traitsIDsESaIDsEEESt4hashIS5_ESt8equal_toIS5_ESaIS5_EED1Ev
	movq	-24(%rbp), %rcx
	xorq	%fs:40, %rcx
	je	.L315
	jmp	.L320
.L319:
	movq	%rax, %rbx
	leaq	-64(%rbp), %rax
	movq	%rax, %rdi
	call	_ZNSt7__cxx1112basic_stringIcSt11char_traitsIcESaIcEED1Ev
	jmp	.L312
.L318:
	movq	%rax, %rbx
.L312:
	leaq	-96(%rbp), %rax
	movq	%rax, %rdi
	call	_ZNSt7__cxx1112basic_stringIDsSt11char_traitsIDsESaIDsEED1Ev
	jmp	.L313
.L317:
	movq	%rax, %rbx
.L313:
	leaq	-128(%rbp), %rax
	movq	%rax, %rdi
	call	_ZNSt7__cxx1112basic_stringIDsSt11char_traitsIDsESaIDsEED1Ev
	jmp	.L314
.L316:
	movq	%rax, %rbx
.L314:
	leaq	-192(%rbp), %rax
	movq	%rax, %rdi
	call	_ZNSt13unordered_setINSt7__cxx1112basic_stringIDsSt11char_traitsIDsESaIDsEEESt4hashIS5_ESt8equal_toIS5_ESaIS5_EED1Ev
	movq	%rbx, %rax
	movq	%rax, %rdi
.LEHB64:
	call	_Unwind_Resume
.LEHE64:
.L320:
	call	__stack_chk_fail
.L315:
	addq	$232, %rsp
	popq	%rbx
	popq	%rbp
	.cfi_def_cfa 7, 8
	ret
	.cfi_endproc
.LFE8104:
	.section	.gcc_except_table
.LLSDA8104:
	.byte	0xff
	.byte	0xff
	.byte	0x1
	.uleb128 .LLSDACSE8104-.LLSDACSB8104
.LLSDACSB8104:
	.uleb128 .LEHB60-.LFB8104
	.uleb128 .LEHE60-.LEHB60
	.uleb128 .L316-.LFB8104
	.uleb128 0
	.uleb128 .LEHB61-.LFB8104
	.uleb128 .LEHE61-.LEHB61
	.uleb128 .L317-.LFB8104
	.uleb128 0
	.uleb128 .LEHB62-.LFB8104
	.uleb128 .LEHE62-.LEHB62
	.uleb128 .L318-.LFB8104
	.uleb128 0
	.uleb128 .LEHB63-.LFB8104
	.uleb128 .LEHE63-.LEHB63
	.uleb128 .L319-.LFB8104
	.uleb128 0
	.uleb128 .LEHB64-.LFB8104
	.uleb128 .LEHE64-.LEHB64
	.uleb128 0
	.uleb128 0
.LLSDACSE8104:
	.text
	.size	_Z15greatFindDefineNSt7__cxx1112basic_stringIDsSt11char_traitsIDsESaIDsEEEi, .-_Z15greatFindDefineNSt7__cxx1112basic_stringIDsSt11char_traitsIDsESaIDsEEEi
	.globl	_Z17dealDefineContentRSt6vectorINSt7__cxx1112basic_stringIDsSt11char_traitsIDsESaIDsEEESaIS5_EE
	.type	_Z17dealDefineContentRSt6vectorINSt7__cxx1112basic_stringIDsSt11char_traitsIDsESaIDsEEESaIS5_EE, @function
_Z17dealDefineContentRSt6vectorINSt7__cxx1112basic_stringIDsSt11char_traitsIDsESaIDsEEESaIS5_EE:
.LFB8177:
	.cfi_startproc
	.cfi_personality 0x3,__gxx_personality_v0
	.cfi_lsda 0x3,.LLSDA8177
	pushq	%rbp
	.cfi_def_cfa_offset 16
	.cfi_offset 6, -16
	movq	%rsp, %rbp
	.cfi_def_cfa_register 6
	pushq	%rbx
	subq	$120, %rsp
	.cfi_offset 3, -24
	movq	%rdi, -120(%rbp)
	movq	%rsi, -128(%rbp)
	movq	%fs:40, %rax
	movq	%rax, -24(%rbp)
	xorl	%eax, %eax
	movq	-120(%rbp), %rax
	movq	%rax, %rdi
	call	_ZNSt6vectorINSt7__cxx1112basic_stringIDsSt11char_traitsIDsESaIDsEEESaIS5_EEC1Ev
	movl	$1, -104(%rbp)
	movq	-128(%rbp), %rax
	movq	%rax, %rdi
.LEHB65:
	call	_Z15toFindDefineRowRSt6vectorINSt7__cxx1112basic_stringIDsSt11char_traitsIDsESaIDsEEESaIS5_EE
	movl	%eax, -100(%rbp)
	movq	-128(%rbp), %rax
	movq	%rax, -72(%rbp)
	movq	-72(%rbp), %rax
	movq	%rax, %rdi
	call	_ZNSt6vectorINSt7__cxx1112basic_stringIDsSt11char_traitsIDsESaIDsEEESaIS5_EE5beginEv
	movq	%rax, -96(%rbp)
	movq	-72(%rbp), %rax
	movq	%rax, %rdi
	call	_ZNSt6vectorINSt7__cxx1112basic_stringIDsSt11char_traitsIDsESaIDsEEESaIS5_EE3endEv
	movq	%rax, -80(%rbp)
.L325:
	leaq	-80(%rbp), %rdx
	leaq	-96(%rbp), %rax
	movq	%rdx, %rsi
	movq	%rax, %rdi
	call	_ZN9__gnu_cxxneIPNSt7__cxx1112basic_stringIDsSt11char_traitsIDsESaIDsEEESt6vectorIS6_SaIS6_EEEEbRKNS_17__normal_iteratorIT_T0_EESG_
	testb	%al, %al
	je	.L332
	leaq	-96(%rbp), %rax
	movq	%rax, %rdi
	call	_ZNK9__gnu_cxx17__normal_iteratorIPNSt7__cxx1112basic_stringIDsSt11char_traitsIDsESaIDsEEESt6vectorIS6_SaIS6_EEEdeEv
	movq	%rax, %rdx
	leaq	-64(%rbp), %rax
	movq	%rdx, %rsi
	movq	%rax, %rdi
	call	_ZNSt7__cxx1112basic_stringIDsSt11char_traitsIDsESaIDsEEC1ERKS4_
.LEHE65:
	movl	-104(%rbp), %eax
	cmpl	-100(%rbp), %eax
	jne	.L323
	movq	-128(%rbp), %rax
	movq	%rax, %rdi
.LEHB66:
	call	_Z18getRelationContentRSt6vectorINSt7__cxx1112basic_stringIDsSt11char_traitsIDsESaIDsEEESaIS5_EE
	addl	$1, -104(%rbp)
	jmp	.L324
.L323:
	addl	$1, -104(%rbp)
	leaq	-64(%rbp), %rdx
	movq	-120(%rbp), %rax
	movq	%rdx, %rsi
	movq	%rax, %rdi
	call	_ZNSt6vectorINSt7__cxx1112basic_stringIDsSt11char_traitsIDsESaIDsEEESaIS5_EE9push_backERKS5_
.LEHE66:
.L324:
	leaq	-64(%rbp), %rax
	movq	%rax, %rdi
	call	_ZNSt7__cxx1112basic_stringIDsSt11char_traitsIDsESaIDsEED1Ev
	leaq	-96(%rbp), %rax
	movq	%rax, %rdi
	call	_ZN9__gnu_cxx17__normal_iteratorIPNSt7__cxx1112basic_stringIDsSt11char_traitsIDsESaIDsEEESt6vectorIS6_SaIS6_EEEppEv
	jmp	.L325
.L331:
	movq	%rax, %rbx
	leaq	-64(%rbp), %rax
	movq	%rax, %rdi
	call	_ZNSt7__cxx1112basic_stringIDsSt11char_traitsIDsESaIDsEED1Ev
	jmp	.L328
.L330:
	movq	%rax, %rbx
.L328:
	movq	-120(%rbp), %rax
	movq	%rax, %rdi
	call	_ZNSt6vectorINSt7__cxx1112basic_stringIDsSt11char_traitsIDsESaIDsEEESaIS5_EED1Ev
	movq	%rbx, %rax
	movq	%rax, %rdi
.LEHB67:
	call	_Unwind_Resume
.LEHE67:
.L332:
	nop
	movq	-120(%rbp), %rax
	movq	-24(%rbp), %rcx
	xorq	%fs:40, %rcx
	je	.L329
	call	__stack_chk_fail
.L329:
	addq	$120, %rsp
	popq	%rbx
	popq	%rbp
	.cfi_def_cfa 7, 8
	ret
	.cfi_endproc
.LFE8177:
	.section	.gcc_except_table
.LLSDA8177:
	.byte	0xff
	.byte	0xff
	.byte	0x1
	.uleb128 .LLSDACSE8177-.LLSDACSB8177
.LLSDACSB8177:
	.uleb128 .LEHB65-.LFB8177
	.uleb128 .LEHE65-.LEHB65
	.uleb128 .L330-.LFB8177
	.uleb128 0
	.uleb128 .LEHB66-.LFB8177
	.uleb128 .LEHE66-.LEHB66
	.uleb128 .L331-.LFB8177
	.uleb128 0
	.uleb128 .LEHB67-.LFB8177
	.uleb128 .LEHE67-.LEHB67
	.uleb128 0
	.uleb128 0
.LLSDACSE8177:
	.text
	.size	_Z17dealDefineContentRSt6vectorINSt7__cxx1112basic_stringIDsSt11char_traitsIDsESaIDsEEESaIS5_EE, .-_Z17dealDefineContentRSt6vectorINSt7__cxx1112basic_stringIDsSt11char_traitsIDsESaIDsEEESaIS5_EE
	.globl	_Z17getFirstDefineRowRSt6vectorINSt7__cxx1112basic_stringIDsSt11char_traitsIDsESaIDsEEESaIS5_EE
	.type	_Z17getFirstDefineRowRSt6vectorINSt7__cxx1112basic_stringIDsSt11char_traitsIDsESaIDsEEESaIS5_EE, @function
_Z17getFirstDefineRowRSt6vectorINSt7__cxx1112basic_stringIDsSt11char_traitsIDsESaIDsEEESaIS5_EE:
.LFB8178:
	.cfi_startproc
	.cfi_personality 0x3,__gxx_personality_v0
	.cfi_lsda 0x3,.LLSDA8178
	pushq	%rbp
	.cfi_def_cfa_offset 16
	.cfi_offset 6, -16
	movq	%rsp, %rbp
	.cfi_def_cfa_register 6
	pushq	%r12
	pushq	%rbx
	subq	$160, %rsp
	.cfi_offset 12, -24
	.cfi_offset 3, -32
	movq	%rdi, -168(%rbp)
	movq	%fs:40, %rax
	movq	%rax, -24(%rbp)
	xorl	%eax, %eax
	leaq	-128(%rbp), %rax
	movq	%rax, %rdi
	call	_ZNSt6vectorINSt7__cxx1112basic_stringIDsSt11char_traitsIDsESaIDsEEESaIS5_EEC1Ev
	leaq	-96(%rbp), %rax
	movq	-168(%rbp), %rdx
	movq	%rdx, %rsi
	movq	%rax, %rdi
.LEHB68:
	call	_Z13getIsSharpRowRSt6vectorINSt7__cxx1112basic_stringIDsSt11char_traitsIDsESaIDsEEESaIS5_EE
	leaq	-96(%rbp), %rdx
	leaq	-128(%rbp), %rax
	movq	%rdx, %rsi
	movq	%rax, %rdi
	call	_ZNSt6vectorINSt7__cxx1112basic_stringIDsSt11char_traitsIDsESaIDsEEESaIS5_EEaSEOS7_
	leaq	-96(%rbp), %rax
	movq	%rax, %rdi
	call	_ZNSt6vectorINSt7__cxx1112basic_stringIDsSt11char_traitsIDsESaIDsEEESaIS5_EED1Ev
	leaq	-128(%rbp), %rax
	movq	%rax, -136(%rbp)
	movq	-136(%rbp), %rax
	movq	%rax, %rdi
	call	_ZNSt6vectorINSt7__cxx1112basic_stringIDsSt11char_traitsIDsESaIDsEEESaIS5_EE5beginEv
	movq	%rax, -144(%rbp)
	movq	-136(%rbp), %rax
	movq	%rax, %rdi
	call	_ZNSt6vectorINSt7__cxx1112basic_stringIDsSt11char_traitsIDsESaIDsEEESaIS5_EE3endEv
	movq	%rax, -96(%rbp)
.L341:
	leaq	-96(%rbp), %rdx
	leaq	-144(%rbp), %rax
	movq	%rdx, %rsi
	movq	%rax, %rdi
	call	_ZN9__gnu_cxxneIPNSt7__cxx1112basic_stringIDsSt11char_traitsIDsESaIDsEEESt6vectorIS6_SaIS6_EEEEbRKNS_17__normal_iteratorIT_T0_EESG_
	testb	%al, %al
	je	.L334
	leaq	-144(%rbp), %rax
	movq	%rax, %rdi
	call	_ZNK9__gnu_cxx17__normal_iteratorIPNSt7__cxx1112basic_stringIDsSt11char_traitsIDsESaIDsEEESt6vectorIS6_SaIS6_EEEdeEv
	movq	%rax, %rdx
	leaq	-64(%rbp), %rax
	movq	%rdx, %rsi
	movq	%rax, %rdi
	call	_ZNSt7__cxx1112basic_stringIDsSt11char_traitsIDsESaIDsEEC1ERKS4_
.LEHE68:
	leaq	-64(%rbp), %rax
	movl	$.LC7, %esi
	movq	%rax, %rdi
.LEHB69:
	call	_ZSteqIDsSt11char_traitsIDsESaIDsEEbRKNSt7__cxx1112basic_stringIT_T0_T1_EEPKS5_
	testb	%al, %al
	je	.L335
	movl	$1, -148(%rbp)
	movl	-148(%rbp), %ebx
	movl	$0, %r12d
	jmp	.L336
.L335:
	leaq	-64(%rbp), %rax
	movl	$.LC0, %esi
	movq	%rax, %rdi
	call	_ZSteqIDsSt11char_traitsIDsESaIDsEEbRKNSt7__cxx1112basic_stringIT_T0_T1_EEPKS5_
	testb	%al, %al
	je	.L337
	movl	$2, -148(%rbp)
	movl	-148(%rbp), %ebx
	movl	$0, %r12d
	jmp	.L336
.L337:
	leaq	-64(%rbp), %rax
	movl	$.LC1, %esi
	movq	%rax, %rdi
	call	_ZSteqIDsSt11char_traitsIDsESaIDsEEbRKNSt7__cxx1112basic_stringIT_T0_T1_EEPKS5_
.LEHE69:
	testb	%al, %al
	je	.L338
	movl	$3, -148(%rbp)
	movl	-148(%rbp), %ebx
	movl	$0, %r12d
	jmp	.L336
.L338:
	movl	$1, %r12d
	nop
.L336:
	leaq	-64(%rbp), %rax
	movq	%rax, %rdi
	call	_ZNSt7__cxx1112basic_stringIDsSt11char_traitsIDsESaIDsEED1Ev
	testl	%r12d, %r12d
	je	.L342
	leaq	-144(%rbp), %rax
	movq	%rax, %rdi
	call	_ZN9__gnu_cxx17__normal_iteratorIPNSt7__cxx1112basic_stringIDsSt11char_traitsIDsESaIDsEEESt6vectorIS6_SaIS6_EEEppEv
	jmp	.L341
.L334:
	movl	$0, -148(%rbp)
	movl	-148(%rbp), %ebx
.L342:
	leaq	-128(%rbp), %rax
	movq	%rax, %rdi
	call	_ZNSt6vectorINSt7__cxx1112basic_stringIDsSt11char_traitsIDsESaIDsEEESaIS5_EED1Ev
	movl	%ebx, %eax
	movq	-24(%rbp), %rcx
	xorq	%fs:40, %rcx
	je	.L346
	jmp	.L349
.L348:
	movq	%rax, %rbx
	leaq	-64(%rbp), %rax
	movq	%rax, %rdi
	call	_ZNSt7__cxx1112basic_stringIDsSt11char_traitsIDsESaIDsEED1Ev
	jmp	.L345
.L347:
	movq	%rax, %rbx
.L345:
	leaq	-128(%rbp), %rax
	movq	%rax, %rdi
	call	_ZNSt6vectorINSt7__cxx1112basic_stringIDsSt11char_traitsIDsESaIDsEEESaIS5_EED1Ev
	movq	%rbx, %rax
	movq	%rax, %rdi
.LEHB70:
	call	_Unwind_Resume
.LEHE70:
.L349:
	call	__stack_chk_fail
.L346:
	addq	$160, %rsp
	popq	%rbx
	popq	%r12
	popq	%rbp
	.cfi_def_cfa 7, 8
	ret
	.cfi_endproc
.LFE8178:
	.section	.gcc_except_table
.LLSDA8178:
	.byte	0xff
	.byte	0xff
	.byte	0x1
	.uleb128 .LLSDACSE8178-.LLSDACSB8178
.LLSDACSB8178:
	.uleb128 .LEHB68-.LFB8178
	.uleb128 .LEHE68-.LEHB68
	.uleb128 .L347-.LFB8178
	.uleb128 0
	.uleb128 .LEHB69-.LFB8178
	.uleb128 .LEHE69-.LEHB69
	.uleb128 .L348-.LFB8178
	.uleb128 0
	.uleb128 .LEHB70-.LFB8178
	.uleb128 .LEHE70-.LEHB70
	.uleb128 0
	.uleb128 0
.LLSDACSE8178:
	.text
	.size	_Z17getFirstDefineRowRSt6vectorINSt7__cxx1112basic_stringIDsSt11char_traitsIDsESaIDsEEESaIS5_EE, .-_Z17getFirstDefineRowRSt6vectorINSt7__cxx1112basic_stringIDsSt11char_traitsIDsESaIDsEEESaIS5_EE
	.globl	_Z10isRelationRSt6vectorINSt7__cxx1112basic_stringIDsSt11char_traitsIDsESaIDsEEESaIS5_EE
	.type	_Z10isRelationRSt6vectorINSt7__cxx1112basic_stringIDsSt11char_traitsIDsESaIDsEEESaIS5_EE, @function
_Z10isRelationRSt6vectorINSt7__cxx1112basic_stringIDsSt11char_traitsIDsESaIDsEEESaIS5_EE:
.LFB8179:
	.cfi_startproc
	.cfi_personality 0x3,__gxx_personality_v0
	.cfi_lsda 0x3,.LLSDA8179
	pushq	%rbp
	.cfi_def_cfa_offset 16
	.cfi_offset 6, -16
	movq	%rsp, %rbp
	.cfi_def_cfa_register 6
	pushq	%rbx
	subq	$72, %rsp
	.cfi_offset 3, -24
	movq	%rdi, -72(%rbp)
	movq	%rsi, -80(%rbp)
	movq	%fs:40, %rax
	movq	%rax, -24(%rbp)
	xorl	%eax, %eax
	movq	-72(%rbp), %rax
	movq	%rax, %rdi
	call	_ZNSt6vectorINSt7__cxx1112basic_stringIDsSt11char_traitsIDsESaIDsEEESaIS5_EEC1Ev
	movq	-80(%rbp), %rax
	movq	%rax, %rdi
.LEHB71:
	call	_Z17getFirstDefineRowRSt6vectorINSt7__cxx1112basic_stringIDsSt11char_traitsIDsESaIDsEEESaIS5_EE
	movl	%eax, -52(%rbp)
.L353:
	cmpl	$0, -52(%rbp)
	je	.L358
	cmpl	$1, -52(%rbp)
	jne	.L353
	leaq	-48(%rbp), %rax
	movq	-80(%rbp), %rdx
	movq	%rdx, %rsi
	movq	%rax, %rdi
	call	_Z17dealDefineContentRSt6vectorINSt7__cxx1112basic_stringIDsSt11char_traitsIDsESaIDsEEESaIS5_EE
.LEHE71:
	leaq	-48(%rbp), %rdx
	movq	-72(%rbp), %rax
	movq	%rdx, %rsi
	movq	%rax, %rdi
	call	_ZNSt6vectorINSt7__cxx1112basic_stringIDsSt11char_traitsIDsESaIDsEEESaIS5_EEaSEOS7_
	leaq	-48(%rbp), %rax
	movq	%rax, %rdi
	call	_ZNSt6vectorINSt7__cxx1112basic_stringIDsSt11char_traitsIDsESaIDsEEESaIS5_EED1Ev
	nop
	jmp	.L358
.L357:
	movq	%rax, %rbx
	movq	-72(%rbp), %rax
	movq	%rax, %rdi
	call	_ZNSt6vectorINSt7__cxx1112basic_stringIDsSt11char_traitsIDsESaIDsEEESaIS5_EED1Ev
	movq	%rbx, %rax
	movq	%rax, %rdi
.LEHB72:
	call	_Unwind_Resume
.LEHE72:
.L358:
	nop
	movq	-72(%rbp), %rax
	movq	-24(%rbp), %rcx
	xorq	%fs:40, %rcx
	je	.L356
	call	__stack_chk_fail
.L356:
	addq	$72, %rsp
	popq	%rbx
	popq	%rbp
	.cfi_def_cfa 7, 8
	ret
	.cfi_endproc
.LFE8179:
	.section	.gcc_except_table
.LLSDA8179:
	.byte	0xff
	.byte	0xff
	.byte	0x1
	.uleb128 .LLSDACSE8179-.LLSDACSB8179
.LLSDACSB8179:
	.uleb128 .LEHB71-.LFB8179
	.uleb128 .LEHE71-.LEHB71
	.uleb128 .L357-.LFB8179
	.uleb128 0
	.uleb128 .LEHB72-.LFB8179
	.uleb128 .LEHE72-.LEHB72
	.uleb128 0
	.uleb128 0
.LLSDACSE8179:
	.text
	.size	_Z10isRelationRSt6vectorINSt7__cxx1112basic_stringIDsSt11char_traitsIDsESaIDsEEESaIS5_EE, .-_Z10isRelationRSt6vectorINSt7__cxx1112basic_stringIDsSt11char_traitsIDsESaIDsEEESaIS5_EE
	.section	.rodata
.LC11:
	.string	"test/a.cpp"
	.text
	.globl	main
	.type	main, @function
main:
.LFB8180:
	.cfi_startproc
	.cfi_personality 0x3,__gxx_personality_v0
	.cfi_lsda 0x3,.LLSDA8180
	pushq	%rbp
	.cfi_def_cfa_offset 16
	.cfi_offset 6, -16
	movq	%rsp, %rbp
	.cfi_def_cfa_register 6
	pushq	%rbx
	subq	$840, %rsp
	.cfi_offset 3, -24
	movq	%fs:40, %rax
	movq	%rax, -24(%rbp)
	xorl	%eax, %eax
	leaq	-560(%rbp), %rax
	movl	$8, %edx
	movl	$.LC11, %esi
	movq	%rax, %rdi
.LEHB73:
	call	_ZNSt13basic_fstreamIcSt11char_traitsIcEEC1EPKcSt13_Ios_Openmode
.LEHE73:
	leaq	-656(%rbp), %rax
	movq	%rax, %rdi
	call	_ZNSt7__cxx1112basic_stringIcSt11char_traitsIcESaIcEEC1Ev
	leaq	-848(%rbp), %rax
	movq	%rax, %rdi
	call	_ZNSt6vectorINSt7__cxx1112basic_stringIDsSt11char_traitsIDsESaIDsEEESaIS5_EEC1Ev
.L361:
	leaq	-656(%rbp), %rdx
	leaq	-560(%rbp), %rax
	movq	%rdx, %rsi
	movq	%rax, %rdi
.LEHB74:
	call	_ZSt7getlineIcSt11char_traitsIcESaIcEERSt13basic_istreamIT_T0_ES7_RNSt7__cxx1112basic_stringIS4_S5_T1_EE
	movq	(%rax), %rdx
	subq	$24, %rdx
	movq	(%rdx), %rdx
	addq	%rdx, %rax
	movq	%rax, %rdi
	call	_ZNKSt9basic_iosIcSt11char_traitsIcEEcvbEv
	testb	%al, %al
	je	.L360
	leaq	-656(%rbp), %rdx
	leaq	-624(%rbp), %rax
	movq	%rdx, %rsi
	movq	%rax, %rdi
	call	_ZNSt7__cxx1112basic_stringIcSt11char_traitsIcESaIcEEC1ERKS4_
.LEHE74:
	leaq	-592(%rbp), %rax
	leaq	-624(%rbp), %rdx
	movq	%rdx, %rsi
	movq	%rax, %rdi
.LEHB75:
	call	_Z10from_bytesNSt7__cxx1112basic_stringIcSt11char_traitsIcESaIcEEE
.LEHE75:
	leaq	-592(%rbp), %rdx
	leaq	-848(%rbp), %rax
	movq	%rdx, %rsi
	movq	%rax, %rdi
.LEHB76:
	call	_ZNSt6vectorINSt7__cxx1112basic_stringIDsSt11char_traitsIDsESaIDsEEESaIS5_EE9push_backEOS5_
.LEHE76:
	leaq	-592(%rbp), %rax
	movq	%rax, %rdi
	call	_ZNSt7__cxx1112basic_stringIDsSt11char_traitsIDsESaIDsEED1Ev
	leaq	-624(%rbp), %rax
	movq	%rax, %rdi
	call	_ZNSt7__cxx1112basic_stringIcSt11char_traitsIcESaIcEED1Ev
	jmp	.L361
.L360:
	leaq	-816(%rbp), %rax
	leaq	-848(%rbp), %rdx
	movq	%rdx, %rsi
	movq	%rax, %rdi
.LEHB77:
	call	_Z11removeBlankRSt6vectorINSt7__cxx1112basic_stringIDsSt11char_traitsIDsESaIDsEEESaIS5_EE
	leaq	-816(%rbp), %rdx
	leaq	-848(%rbp), %rax
	movq	%rdx, %rsi
	movq	%rax, %rdi
	call	_ZNSt6vectorINSt7__cxx1112basic_stringIDsSt11char_traitsIDsESaIDsEEESaIS5_EEaSEOS7_
	leaq	-816(%rbp), %rax
	movq	%rax, %rdi
	call	_ZNSt6vectorINSt7__cxx1112basic_stringIDsSt11char_traitsIDsESaIDsEEESaIS5_EED1Ev
	leaq	-784(%rbp), %rax
	leaq	-848(%rbp), %rdx
	movq	%rdx, %rsi
	movq	%rax, %rdi
	call	_Z17removeExplabationRSt6vectorINSt7__cxx1112basic_stringIDsSt11char_traitsIDsESaIDsEEESaIS5_EE
	leaq	-784(%rbp), %rdx
	leaq	-848(%rbp), %rax
	movq	%rdx, %rsi
	movq	%rax, %rdi
	call	_ZNSt6vectorINSt7__cxx1112basic_stringIDsSt11char_traitsIDsESaIDsEEESaIS5_EEaSEOS7_
	leaq	-784(%rbp), %rax
	movq	%rax, %rdi
	call	_ZNSt6vectorINSt7__cxx1112basic_stringIDsSt11char_traitsIDsESaIDsEEESaIS5_EED1Ev
	leaq	-752(%rbp), %rax
	leaq	-848(%rbp), %rdx
	movq	%rdx, %rsi
	movq	%rax, %rdi
	call	_Z20expansionIncludeFileRSt6vectorINSt7__cxx1112basic_stringIDsSt11char_traitsIDsESaIDsEEESaIS5_EE
	leaq	-752(%rbp), %rdx
	leaq	-848(%rbp), %rax
	movq	%rdx, %rsi
	movq	%rax, %rdi
	call	_ZNSt6vectorINSt7__cxx1112basic_stringIDsSt11char_traitsIDsESaIDsEEESaIS5_EEaSEOS7_
	leaq	-752(%rbp), %rax
	movq	%rax, %rdi
	call	_ZNSt6vectorINSt7__cxx1112basic_stringIDsSt11char_traitsIDsESaIDsEEESaIS5_EED1Ev
	leaq	-720(%rbp), %rax
	leaq	-848(%rbp), %rdx
	movq	%rdx, %rsi
	movq	%rax, %rdi
	call	_Z17removeExplabationRSt6vectorINSt7__cxx1112basic_stringIDsSt11char_traitsIDsESaIDsEEESaIS5_EE
	leaq	-720(%rbp), %rdx
	leaq	-848(%rbp), %rax
	movq	%rdx, %rsi
	movq	%rax, %rdi
	call	_ZNSt6vectorINSt7__cxx1112basic_stringIDsSt11char_traitsIDsESaIDsEEESaIS5_EEaSEOS7_
	leaq	-720(%rbp), %rax
	movq	%rax, %rdi
	call	_ZNSt6vectorINSt7__cxx1112basic_stringIDsSt11char_traitsIDsESaIDsEEESaIS5_EED1Ev
	leaq	-688(%rbp), %rax
	leaq	-848(%rbp), %rdx
	movq	%rdx, %rsi
	movq	%rax, %rdi
	call	_Z10isRelationRSt6vectorINSt7__cxx1112basic_stringIDsSt11char_traitsIDsESaIDsEEESaIS5_EE
.LEHE77:
	leaq	-688(%rbp), %rdx
	leaq	-848(%rbp), %rax
	movq	%rdx, %rsi
	movq	%rax, %rdi
	call	_ZNSt6vectorINSt7__cxx1112basic_stringIDsSt11char_traitsIDsESaIDsEEESaIS5_EEaSEOS7_
	leaq	-688(%rbp), %rax
	movq	%rax, %rdi
	call	_ZNSt6vectorINSt7__cxx1112basic_stringIDsSt11char_traitsIDsESaIDsEEESaIS5_EED1Ev
	movl	$0, %ebx
	leaq	-848(%rbp), %rax
	movq	%rax, %rdi
	call	_ZNSt6vectorINSt7__cxx1112basic_stringIDsSt11char_traitsIDsESaIDsEEESaIS5_EED1Ev
	leaq	-656(%rbp), %rax
	movq	%rax, %rdi
	call	_ZNSt7__cxx1112basic_stringIcSt11char_traitsIcESaIcEED1Ev
	leaq	-560(%rbp), %rax
	movq	%rax, %rdi
	call	_ZNSt13basic_fstreamIcSt11char_traitsIcEED1Ev
	movl	%ebx, %eax
	movq	-24(%rbp), %rcx
	xorq	%fs:40, %rcx
	je	.L366
	jmp	.L370
.L369:
	movq	%rax, %rbx
	leaq	-592(%rbp), %rax
	movq	%rax, %rdi
	call	_ZNSt7__cxx1112basic_stringIDsSt11char_traitsIDsESaIDsEED1Ev
	jmp	.L364
.L368:
	movq	%rax, %rbx
.L364:
	leaq	-624(%rbp), %rax
	movq	%rax, %rdi
	call	_ZNSt7__cxx1112basic_stringIcSt11char_traitsIcESaIcEED1Ev
	jmp	.L365
.L367:
	movq	%rax, %rbx
.L365:
	leaq	-848(%rbp), %rax
	movq	%rax, %rdi
	call	_ZNSt6vectorINSt7__cxx1112basic_stringIDsSt11char_traitsIDsESaIDsEEESaIS5_EED1Ev
	leaq	-656(%rbp), %rax
	movq	%rax, %rdi
	call	_ZNSt7__cxx1112basic_stringIcSt11char_traitsIcESaIcEED1Ev
	leaq	-560(%rbp), %rax
	movq	%rax, %rdi
	call	_ZNSt13basic_fstreamIcSt11char_traitsIcEED1Ev
	movq	%rbx, %rax
	movq	%rax, %rdi
.LEHB78:
	call	_Unwind_Resume
.LEHE78:
.L370:
	call	__stack_chk_fail
.L366:
	addq	$840, %rsp
	popq	%rbx
	popq	%rbp
	.cfi_def_cfa 7, 8
	ret
	.cfi_endproc
.LFE8180:
	.section	.gcc_except_table
.LLSDA8180:
	.byte	0xff
	.byte	0xff
	.byte	0x1
	.uleb128 .LLSDACSE8180-.LLSDACSB8180
.LLSDACSB8180:
	.uleb128 .LEHB73-.LFB8180
	.uleb128 .LEHE73-.LEHB73
	.uleb128 0
	.uleb128 0
	.uleb128 .LEHB74-.LFB8180
	.uleb128 .LEHE74-.LEHB74
	.uleb128 .L367-.LFB8180
	.uleb128 0
	.uleb128 .LEHB75-.LFB8180
	.uleb128 .LEHE75-.LEHB75
	.uleb128 .L368-.LFB8180
	.uleb128 0
	.uleb128 .LEHB76-.LFB8180
	.uleb128 .LEHE76-.LEHB76
	.uleb128 .L369-.LFB8180
	.uleb128 0
	.uleb128 .LEHB77-.LFB8180
	.uleb128 .LEHE77-.LEHB77
	.uleb128 .L367-.LFB8180
	.uleb128 0
	.uleb128 .LEHB78-.LFB8180
	.uleb128 .LEHE78-.LEHB78
	.uleb128 0
	.uleb128 0
.LLSDACSE8180:
	.text
	.size	main, .-main
	.section	.text._ZNSt7__cxx1112basic_stringIcSt11char_traitsIcESaIcEE12_Alloc_hiderD2Ev,"axG",@progbits,_ZNSt7__cxx1112basic_stringIcSt11char_traitsIcESaIcEE12_Alloc_hiderD5Ev,comdat
	.align 2
	.weak	_ZNSt7__cxx1112basic_stringIcSt11char_traitsIcESaIcEE12_Alloc_hiderD2Ev
	.type	_ZNSt7__cxx1112basic_stringIcSt11char_traitsIcESaIcEE12_Alloc_hiderD2Ev, @function
_ZNSt7__cxx1112basic_stringIcSt11char_traitsIcESaIcEE12_Alloc_hiderD2Ev:
.LFB8193:
	.cfi_startproc
	pushq	%rbp
	.cfi_def_cfa_offset 16
	.cfi_offset 6, -16
	movq	%rsp, %rbp
	.cfi_def_cfa_register 6
	subq	$16, %rsp
	movq	%rdi, -8(%rbp)
	movq	-8(%rbp), %rax
	movq	%rax, %rdi
	call	_ZNSaIcED2Ev
	nop
	leave
	.cfi_def_cfa 7, 8
	ret
	.cfi_endproc
.LFE8193:
	.size	_ZNSt7__cxx1112basic_stringIcSt11char_traitsIcESaIcEE12_Alloc_hiderD2Ev, .-_ZNSt7__cxx1112basic_stringIcSt11char_traitsIcESaIcEE12_Alloc_hiderD2Ev
	.weak	_ZNSt7__cxx1112basic_stringIcSt11char_traitsIcESaIcEE12_Alloc_hiderD1Ev
	.set	_ZNSt7__cxx1112basic_stringIcSt11char_traitsIcESaIcEE12_Alloc_hiderD1Ev,_ZNSt7__cxx1112basic_stringIcSt11char_traitsIcESaIcEE12_Alloc_hiderD2Ev
	.section	.text._ZNKSt7__cxx1112basic_stringIDsSt11char_traitsIDsESaIDsEE4dataEv,"axG",@progbits,_ZNKSt7__cxx1112basic_stringIDsSt11char_traitsIDsESaIDsEE4dataEv,comdat
	.align 2
	.weak	_ZNKSt7__cxx1112basic_stringIDsSt11char_traitsIDsESaIDsEE4dataEv
	.type	_ZNKSt7__cxx1112basic_stringIDsSt11char_traitsIDsESaIDsEE4dataEv, @function
_ZNKSt7__cxx1112basic_stringIDsSt11char_traitsIDsESaIDsEE4dataEv:
.LFB8227:
	.cfi_startproc
	pushq	%rbp
	.cfi_def_cfa_offset 16
	.cfi_offset 6, -16
	movq	%rsp, %rbp
	.cfi_def_cfa_register 6
	subq	$16, %rsp
	movq	%rdi, -8(%rbp)
	movq	-8(%rbp), %rax
	movq	%rax, %rdi
	call	_ZNKSt7__cxx1112basic_stringIDsSt11char_traitsIDsESaIDsEE7_M_dataEv
	leave
	.cfi_def_cfa 7, 8
	ret
	.cfi_endproc
.LFE8227:
	.size	_ZNKSt7__cxx1112basic_stringIDsSt11char_traitsIDsESaIDsEE4dataEv, .-_ZNKSt7__cxx1112basic_stringIDsSt11char_traitsIDsESaIDsEE4dataEv
	.section	.text._ZNKSt7__cxx1112basic_stringIDsSt11char_traitsIDsESaIDsEE6lengthEv,"axG",@progbits,_ZNKSt7__cxx1112basic_stringIDsSt11char_traitsIDsESaIDsEE6lengthEv,comdat
	.align 2
	.weak	_ZNKSt7__cxx1112basic_stringIDsSt11char_traitsIDsESaIDsEE6lengthEv
	.type	_ZNKSt7__cxx1112basic_stringIDsSt11char_traitsIDsESaIDsEE6lengthEv, @function
_ZNKSt7__cxx1112basic_stringIDsSt11char_traitsIDsESaIDsEE6lengthEv:
.LFB8228:
	.cfi_startproc
	pushq	%rbp
	.cfi_def_cfa_offset 16
	.cfi_offset 6, -16
	movq	%rsp, %rbp
	.cfi_def_cfa_register 6
	movq	%rdi, -8(%rbp)
	movq	-8(%rbp), %rax
	movq	8(%rax), %rax
	popq	%rbp
	.cfi_def_cfa 7, 8
	ret
	.cfi_endproc
.LFE8228:
	.size	_ZNKSt7__cxx1112basic_stringIDsSt11char_traitsIDsESaIDsEE6lengthEv, .-_ZNKSt7__cxx1112basic_stringIDsSt11char_traitsIDsESaIDsEE6lengthEv
	.section	.text._ZNSt12codecvt_baseC2Ev,"axG",@progbits,_ZNSt12codecvt_baseC5Ev,comdat
	.align 2
	.weak	_ZNSt12codecvt_baseC2Ev
	.type	_ZNSt12codecvt_baseC2Ev, @function
_ZNSt12codecvt_baseC2Ev:
.LFB8240:
	.cfi_startproc
	pushq	%rbp
	.cfi_def_cfa_offset 16
	.cfi_offset 6, -16
	movq	%rsp, %rbp
	.cfi_def_cfa_register 6
	movq	%rdi, -8(%rbp)
	nop
	popq	%rbp
	.cfi_def_cfa 7, 8
	ret
	.cfi_endproc
.LFE8240:
	.size	_ZNSt12codecvt_baseC2Ev, .-_ZNSt12codecvt_baseC2Ev
	.weak	_ZNSt12codecvt_baseC1Ev
	.set	_ZNSt12codecvt_baseC1Ev,_ZNSt12codecvt_baseC2Ev
	.section	.text._ZNSt23__codecvt_abstract_baseIDsc11__mbstate_tEC2Em,"axG",@progbits,_ZNSt23__codecvt_abstract_baseIDsc11__mbstate_tEC5Em,comdat
	.align 2
	.weak	_ZNSt23__codecvt_abstract_baseIDsc11__mbstate_tEC2Em
	.type	_ZNSt23__codecvt_abstract_baseIDsc11__mbstate_tEC2Em, @function
_ZNSt23__codecvt_abstract_baseIDsc11__mbstate_tEC2Em:
.LFB8242:
	.cfi_startproc
	pushq	%rbp
	.cfi_def_cfa_offset 16
	.cfi_offset 6, -16
	movq	%rsp, %rbp
	.cfi_def_cfa_register 6
	subq	$16, %rsp
	movq	%rdi, -8(%rbp)
	movq	%rsi, -16(%rbp)
	movq	-8(%rbp), %rax
	movq	-16(%rbp), %rdx
	movq	%rdx, %rsi
	movq	%rax, %rdi
	call	_ZNSt6locale5facetC2Em
	movq	-8(%rbp), %rax
	movq	%rax, %rdi
	call	_ZNSt12codecvt_baseC2Ev
	movl	$_ZTVSt23__codecvt_abstract_baseIDsc11__mbstate_tE+16, %edx
	movq	-8(%rbp), %rax
	movq	%rdx, (%rax)
	nop
	leave
	.cfi_def_cfa 7, 8
	ret
	.cfi_endproc
.LFE8242:
	.size	_ZNSt23__codecvt_abstract_baseIDsc11__mbstate_tEC2Em, .-_ZNSt23__codecvt_abstract_baseIDsc11__mbstate_tEC2Em
	.weak	_ZNSt23__codecvt_abstract_baseIDsc11__mbstate_tEC1Em
	.set	_ZNSt23__codecvt_abstract_baseIDsc11__mbstate_tEC1Em,_ZNSt23__codecvt_abstract_baseIDsc11__mbstate_tEC2Em
	.section	.text._ZNSt18codecvt_utf8_utf16IDsLm1114111ELSt12codecvt_mode0EEC2Em,"axG",@progbits,_ZNSt18codecvt_utf8_utf16IDsLm1114111ELSt12codecvt_mode0EEC5Em,comdat
	.align 2
	.weak	_ZNSt18codecvt_utf8_utf16IDsLm1114111ELSt12codecvt_mode0EEC2Em
	.type	_ZNSt18codecvt_utf8_utf16IDsLm1114111ELSt12codecvt_mode0EEC2Em, @function
_ZNSt18codecvt_utf8_utf16IDsLm1114111ELSt12codecvt_mode0EEC2Em:
.LFB8268:
	.cfi_startproc
	pushq	%rbp
	.cfi_def_cfa_offset 16
	.cfi_offset 6, -16
	movq	%rsp, %rbp
	.cfi_def_cfa_register 6
	subq	$48, %rsp
	movq	%rdi, -40(%rbp)
	movq	%rsi, -48(%rbp)
	movq	%fs:40, %rax
	movq	%rax, -8(%rbp)
	xorl	%eax, %eax
	movq	$1114111, -16(%rbp)
	movq	$1114111, -24(%rbp)
	leaq	-16(%rbp), %rdx
	leaq	-24(%rbp), %rax
	movq	%rdx, %rsi
	movq	%rax, %rdi
	call	_ZSt3minImERKT_S2_S2_
	movq	(%rax), %rsi
	movq	-40(%rbp), %rax
	movq	-48(%rbp), %rdx
	movq	%rdx, %rcx
	movl	$0, %edx
	movq	%rax, %rdi
	call	_ZNSt25__codecvt_utf8_utf16_baseIDsEC2EmSt12codecvt_modem
	movl	$_ZTVSt18codecvt_utf8_utf16IDsLm1114111ELSt12codecvt_mode0EE+16, %edx
	movq	-40(%rbp), %rax
	movq	%rdx, (%rax)
	nop
	movq	-8(%rbp), %rax
	xorq	%fs:40, %rax
	je	.L379
	call	__stack_chk_fail
.L379:
	leave
	.cfi_def_cfa 7, 8
	ret
	.cfi_endproc
.LFE8268:
	.size	_ZNSt18codecvt_utf8_utf16IDsLm1114111ELSt12codecvt_mode0EEC2Em, .-_ZNSt18codecvt_utf8_utf16IDsLm1114111ELSt12codecvt_mode0EEC2Em
	.weak	_ZNSt18codecvt_utf8_utf16IDsLm1114111ELSt12codecvt_mode0EEC1Em
	.set	_ZNSt18codecvt_utf8_utf16IDsLm1114111ELSt12codecvt_mode0EEC1Em,_ZNSt18codecvt_utf8_utf16IDsLm1114111ELSt12codecvt_mode0EEC2Em
	.section	.rodata
.LC12:
	.string	"wstring_convert"
	.section	.text._ZNSt7__cxx1115wstring_convertISt18codecvt_utf8_utf16IDsLm1114111ELSt12codecvt_mode0EEDsSaIDsESaIcEEC2EPS3_,"axG",@progbits,_ZNSt7__cxx1115wstring_convertISt18codecvt_utf8_utf16IDsLm1114111ELSt12codecvt_mode0EEDsSaIDsESaIcEEC5EPS3_,comdat
	.align 2
	.weak	_ZNSt7__cxx1115wstring_convertISt18codecvt_utf8_utf16IDsLm1114111ELSt12codecvt_mode0EEDsSaIDsESaIcEEC2EPS3_
	.type	_ZNSt7__cxx1115wstring_convertISt18codecvt_utf8_utf16IDsLm1114111ELSt12codecvt_mode0EEDsSaIDsESaIcEEC2EPS3_, @function
_ZNSt7__cxx1115wstring_convertISt18codecvt_utf8_utf16IDsLm1114111ELSt12codecvt_mode0EEDsSaIDsESaIcEEC2EPS3_:
.LFB8271:
	.cfi_startproc
	.cfi_personality 0x3,__gxx_personality_v0
	.cfi_lsda 0x3,.LLSDA8271
	pushq	%rbp
	.cfi_def_cfa_offset 16
	.cfi_offset 6, -16
	movq	%rsp, %rbp
	.cfi_def_cfa_register 6
	pushq	%rbx
	subq	$24, %rsp
	.cfi_offset 3, -24
	movq	%rdi, -24(%rbp)
	movq	%rsi, -32(%rbp)
	movq	-24(%rbp), %rax
	movq	-32(%rbp), %rdx
	movq	%rdx, %rsi
	movq	%rax, %rdi
	call	_ZNSt10unique_ptrISt18codecvt_utf8_utf16IDsLm1114111ELSt12codecvt_mode0EESt14default_deleteIS2_EEC1EPS2_
	movq	-24(%rbp), %rax
	addq	$8, %rax
	movq	%rax, %rdi
	call	_ZNSt7__cxx1112basic_stringIcSt11char_traitsIcESaIcEEC1Ev
	movq	-24(%rbp), %rax
	addq	$40, %rax
	movq	%rax, %rdi
	call	_ZNSt7__cxx1112basic_stringIDsSt11char_traitsIDsESaIDsEEC1Ev
	movq	-24(%rbp), %rax
	movl	$0, 72(%rax)
	movq	-24(%rbp), %rax
	movl	$0, 76(%rax)
	movq	-24(%rbp), %rax
	movq	$0, 80(%rax)
	movq	-24(%rbp), %rax
	movb	$0, 88(%rax)
	movq	-24(%rbp), %rax
	movb	$0, 89(%rax)
	movq	-24(%rbp), %rax
	movq	%rax, %rdi
	call	_ZNKSt10unique_ptrISt18codecvt_utf8_utf16IDsLm1114111ELSt12codecvt_mode0EESt14default_deleteIS2_EEcvbEv
	xorl	$1, %eax
	testb	%al, %al
	je	.L384
	movl	$.LC12, %edi
.LEHB79:
	call	_ZSt19__throw_logic_errorPKc
.LEHE79:
.L383:
	movq	%rax, %rbx
	movq	-24(%rbp), %rax
	addq	$40, %rax
	movq	%rax, %rdi
	call	_ZNSt7__cxx1112basic_stringIDsSt11char_traitsIDsESaIDsEED1Ev
	movq	-24(%rbp), %rax
	addq	$8, %rax
	movq	%rax, %rdi
	call	_ZNSt7__cxx1112basic_stringIcSt11char_traitsIcESaIcEED1Ev
	movq	-24(%rbp), %rax
	movq	%rax, %rdi
	call	_ZNSt10unique_ptrISt18codecvt_utf8_utf16IDsLm1114111ELSt12codecvt_mode0EESt14default_deleteIS2_EED1Ev
	movq	%rbx, %rax
	movq	%rax, %rdi
.LEHB80:
	call	_Unwind_Resume
.LEHE80:
.L384:
	nop
	addq	$24, %rsp
	popq	%rbx
	popq	%rbp
	.cfi_def_cfa 7, 8
	ret
	.cfi_endproc
.LFE8271:
	.section	.gcc_except_table
.LLSDA8271:
	.byte	0xff
	.byte	0xff
	.byte	0x1
	.uleb128 .LLSDACSE8271-.LLSDACSB8271
.LLSDACSB8271:
	.uleb128 .LEHB79-.LFB8271
	.uleb128 .LEHE79-.LEHB79
	.uleb128 .L383-.LFB8271
	.uleb128 0
	.uleb128 .LEHB80-.LFB8271
	.uleb128 .LEHE80-.LEHB80
	.uleb128 0
	.uleb128 0
.LLSDACSE8271:
	.section	.text._ZNSt7__cxx1115wstring_convertISt18codecvt_utf8_utf16IDsLm1114111ELSt12codecvt_mode0EEDsSaIDsESaIcEEC2EPS3_,"axG",@progbits,_ZNSt7__cxx1115wstring_convertISt18codecvt_utf8_utf16IDsLm1114111ELSt12codecvt_mode0EEDsSaIDsESaIcEEC5EPS3_,comdat
	.size	_ZNSt7__cxx1115wstring_convertISt18codecvt_utf8_utf16IDsLm1114111ELSt12codecvt_mode0EEDsSaIDsESaIcEEC2EPS3_, .-_ZNSt7__cxx1115wstring_convertISt18codecvt_utf8_utf16IDsLm1114111ELSt12codecvt_mode0EEDsSaIDsESaIcEEC2EPS3_
	.weak	_ZNSt7__cxx1115wstring_convertISt18codecvt_utf8_utf16IDsLm1114111ELSt12codecvt_mode0EEDsSaIDsESaIcEEC1EPS3_
	.set	_ZNSt7__cxx1115wstring_convertISt18codecvt_utf8_utf16IDsLm1114111ELSt12codecvt_mode0EEDsSaIDsESaIcEEC1EPS3_,_ZNSt7__cxx1115wstring_convertISt18codecvt_utf8_utf16IDsLm1114111ELSt12codecvt_mode0EEDsSaIDsESaIcEEC2EPS3_
	.section	.text._ZNSt10_Head_baseILm0EPSt18codecvt_utf8_utf16IDsLm1114111ELSt12codecvt_mode0EELb0EE7_M_headERS4_,"axG",@progbits,_ZNSt10_Head_baseILm0EPSt18codecvt_utf8_utf16IDsLm1114111ELSt12codecvt_mode0EELb0EE7_M_headERS4_,comdat
	.weak	_ZNSt10_Head_baseILm0EPSt18codecvt_utf8_utf16IDsLm1114111ELSt12codecvt_mode0EELb0EE7_M_headERS4_
	.type	_ZNSt10_Head_baseILm0EPSt18codecvt_utf8_utf16IDsLm1114111ELSt12codecvt_mode0EELb0EE7_M_headERS4_, @function
_ZNSt10_Head_baseILm0EPSt18codecvt_utf8_utf16IDsLm1114111ELSt12codecvt_mode0EELb0EE7_M_headERS4_:
.LFB8277:
	.cfi_startproc
	pushq	%rbp
	.cfi_def_cfa_offset 16
	.cfi_offset 6, -16
	movq	%rsp, %rbp
	.cfi_def_cfa_register 6
	movq	%rdi, -8(%rbp)
	movq	-8(%rbp), %rax
	popq	%rbp
	.cfi_def_cfa 7, 8
	ret
	.cfi_endproc
.LFE8277:
	.size	_ZNSt10_Head_baseILm0EPSt18codecvt_utf8_utf16IDsLm1114111ELSt12codecvt_mode0EELb0EE7_M_headERS4_, .-_ZNSt10_Head_baseILm0EPSt18codecvt_utf8_utf16IDsLm1114111ELSt12codecvt_mode0EELb0EE7_M_headERS4_
	.section	.text._ZNSt11_Tuple_implILm0EJPSt18codecvt_utf8_utf16IDsLm1114111ELSt12codecvt_mode0EESt14default_deleteIS2_EEE7_M_headERS6_,"axG",@progbits,_ZNSt11_Tuple_implILm0EJPSt18codecvt_utf8_utf16IDsLm1114111ELSt12codecvt_mode0EESt14default_deleteIS2_EEE7_M_headERS6_,comdat
	.weak	_ZNSt11_Tuple_implILm0EJPSt18codecvt_utf8_utf16IDsLm1114111ELSt12codecvt_mode0EESt14default_deleteIS2_EEE7_M_headERS6_
	.type	_ZNSt11_Tuple_implILm0EJPSt18codecvt_utf8_utf16IDsLm1114111ELSt12codecvt_mode0EESt14default_deleteIS2_EEE7_M_headERS6_, @function
_ZNSt11_Tuple_implILm0EJPSt18codecvt_utf8_utf16IDsLm1114111ELSt12codecvt_mode0EESt14default_deleteIS2_EEE7_M_headERS6_:
.LFB8276:
	.cfi_startproc
	pushq	%rbp
	.cfi_def_cfa_offset 16
	.cfi_offset 6, -16
	movq	%rsp, %rbp
	.cfi_def_cfa_register 6
	subq	$16, %rsp
	movq	%rdi, -8(%rbp)
	movq	-8(%rbp), %rax
	movq	%rax, %rdi
	call	_ZNSt10_Head_baseILm0EPSt18codecvt_utf8_utf16IDsLm1114111ELSt12codecvt_mode0EELb0EE7_M_headERS4_
	leave
	.cfi_def_cfa 7, 8
	ret
	.cfi_endproc
.LFE8276:
	.size	_ZNSt11_Tuple_implILm0EJPSt18codecvt_utf8_utf16IDsLm1114111ELSt12codecvt_mode0EESt14default_deleteIS2_EEE7_M_headERS6_, .-_ZNSt11_Tuple_implILm0EJPSt18codecvt_utf8_utf16IDsLm1114111ELSt12codecvt_mode0EESt14default_deleteIS2_EEE7_M_headERS6_
	.weak	_ZNSt11_Tuple_implILm0EIPSt18codecvt_utf8_utf16IDsLm1114111ELSt12codecvt_mode0EESt14default_deleteIS2_EEE7_M_headERS6_
	.set	_ZNSt11_Tuple_implILm0EIPSt18codecvt_utf8_utf16IDsLm1114111ELSt12codecvt_mode0EESt14default_deleteIS2_EEE7_M_headERS6_,_ZNSt11_Tuple_implILm0EJPSt18codecvt_utf8_utf16IDsLm1114111ELSt12codecvt_mode0EESt14default_deleteIS2_EEE7_M_headERS6_
	.section	.text._ZSt12__get_helperILm0EPSt18codecvt_utf8_utf16IDsLm1114111ELSt12codecvt_mode0EEJSt14default_deleteIS2_EEERT0_RSt11_Tuple_implIXT_EJS6_DpT1_EE,"axG",@progbits,_ZSt12__get_helperILm0EPSt18codecvt_utf8_utf16IDsLm1114111ELSt12codecvt_mode0EEJSt14default_deleteIS2_EEERT0_RSt11_Tuple_implIXT_EJS6_DpT1_EE,comdat
	.weak	_ZSt12__get_helperILm0EPSt18codecvt_utf8_utf16IDsLm1114111ELSt12codecvt_mode0EEJSt14default_deleteIS2_EEERT0_RSt11_Tuple_implIXT_EJS6_DpT1_EE
	.type	_ZSt12__get_helperILm0EPSt18codecvt_utf8_utf16IDsLm1114111ELSt12codecvt_mode0EEJSt14default_deleteIS2_EEERT0_RSt11_Tuple_implIXT_EJS6_DpT1_EE, @function
_ZSt12__get_helperILm0EPSt18codecvt_utf8_utf16IDsLm1114111ELSt12codecvt_mode0EEJSt14default_deleteIS2_EEERT0_RSt11_Tuple_implIXT_EJS6_DpT1_EE:
.LFB8275:
	.cfi_startproc
	pushq	%rbp
	.cfi_def_cfa_offset 16
	.cfi_offset 6, -16
	movq	%rsp, %rbp
	.cfi_def_cfa_register 6
	subq	$16, %rsp
	movq	%rdi, -8(%rbp)
	movq	-8(%rbp), %rax
	movq	%rax, %rdi
	call	_ZNSt11_Tuple_implILm0EJPSt18codecvt_utf8_utf16IDsLm1114111ELSt12codecvt_mode0EESt14default_deleteIS2_EEE7_M_headERS6_
	leave
	.cfi_def_cfa 7, 8
	ret
	.cfi_endproc
.LFE8275:
	.size	_ZSt12__get_helperILm0EPSt18codecvt_utf8_utf16IDsLm1114111ELSt12codecvt_mode0EEJSt14default_deleteIS2_EEERT0_RSt11_Tuple_implIXT_EJS6_DpT1_EE, .-_ZSt12__get_helperILm0EPSt18codecvt_utf8_utf16IDsLm1114111ELSt12codecvt_mode0EEJSt14default_deleteIS2_EEERT0_RSt11_Tuple_implIXT_EJS6_DpT1_EE
	.weak	_ZSt12__get_helperILm0EPSt18codecvt_utf8_utf16IDsLm1114111ELSt12codecvt_mode0EEISt14default_deleteIS2_EEERT0_RSt11_Tuple_implIXT_EIS6_DpT1_EE
	.set	_ZSt12__get_helperILm0EPSt18codecvt_utf8_utf16IDsLm1114111ELSt12codecvt_mode0EEISt14default_deleteIS2_EEERT0_RSt11_Tuple_implIXT_EIS6_DpT1_EE,_ZSt12__get_helperILm0EPSt18codecvt_utf8_utf16IDsLm1114111ELSt12codecvt_mode0EEJSt14default_deleteIS2_EEERT0_RSt11_Tuple_implIXT_EJS6_DpT1_EE
	.section	.text._ZSt3getILm0EJPSt18codecvt_utf8_utf16IDsLm1114111ELSt12codecvt_mode0EESt14default_deleteIS2_EEERNSt13tuple_elementIXT_ESt5tupleIJDpT0_EEE4typeERSA_,"axG",@progbits,_ZSt3getILm0EJPSt18codecvt_utf8_utf16IDsLm1114111ELSt12codecvt_mode0EESt14default_deleteIS2_EEERNSt13tuple_elementIXT_ESt5tupleIJDpT0_EEE4typeERSA_,comdat
	.weak	_ZSt3getILm0EJPSt18codecvt_utf8_utf16IDsLm1114111ELSt12codecvt_mode0EESt14default_deleteIS2_EEERNSt13tuple_elementIXT_ESt5tupleIJDpT0_EEE4typeERSA_
	.type	_ZSt3getILm0EJPSt18codecvt_utf8_utf16IDsLm1114111ELSt12codecvt_mode0EESt14default_deleteIS2_EEERNSt13tuple_elementIXT_ESt5tupleIJDpT0_EEE4typeERSA_, @function
_ZSt3getILm0EJPSt18codecvt_utf8_utf16IDsLm1114111ELSt12codecvt_mode0EESt14default_deleteIS2_EEERNSt13tuple_elementIXT_ESt5tupleIJDpT0_EEE4typeERSA_:
.LFB8274:
	.cfi_startproc
	pushq	%rbp
	.cfi_def_cfa_offset 16
	.cfi_offset 6, -16
	movq	%rsp, %rbp
	.cfi_def_cfa_register 6
	subq	$16, %rsp
	movq	%rdi, -8(%rbp)
	movq	-8(%rbp), %rax
	movq	%rax, %rdi
	call	_ZSt12__get_helperILm0EPSt18codecvt_utf8_utf16IDsLm1114111ELSt12codecvt_mode0EEJSt14default_deleteIS2_EEERT0_RSt11_Tuple_implIXT_EJS6_DpT1_EE
	leave
	.cfi_def_cfa 7, 8
	ret
	.cfi_endproc
.LFE8274:
	.size	_ZSt3getILm0EJPSt18codecvt_utf8_utf16IDsLm1114111ELSt12codecvt_mode0EESt14default_deleteIS2_EEERNSt13tuple_elementIXT_ESt5tupleIJDpT0_EEE4typeERSA_, .-_ZSt3getILm0EJPSt18codecvt_utf8_utf16IDsLm1114111ELSt12codecvt_mode0EESt14default_deleteIS2_EEERNSt13tuple_elementIXT_ESt5tupleIJDpT0_EEE4typeERSA_
	.weak	_ZSt3getILm0EIPSt18codecvt_utf8_utf16IDsLm1114111ELSt12codecvt_mode0EESt14default_deleteIS2_EEERNSt13tuple_elementIXT_ESt5tupleIIDpT0_EEE4typeERSA_
	.set	_ZSt3getILm0EIPSt18codecvt_utf8_utf16IDsLm1114111ELSt12codecvt_mode0EESt14default_deleteIS2_EEERNSt13tuple_elementIXT_ESt5tupleIIDpT0_EEE4typeERSA_,_ZSt3getILm0EJPSt18codecvt_utf8_utf16IDsLm1114111ELSt12codecvt_mode0EESt14default_deleteIS2_EEERNSt13tuple_elementIXT_ESt5tupleIJDpT0_EEE4typeERSA_
	.section	.text._ZNSt10unique_ptrISt18codecvt_utf8_utf16IDsLm1114111ELSt12codecvt_mode0EESt14default_deleteIS2_EED2Ev,"axG",@progbits,_ZNSt10unique_ptrISt18codecvt_utf8_utf16IDsLm1114111ELSt12codecvt_mode0EESt14default_deleteIS2_EED5Ev,comdat
	.align 2
	.weak	_ZNSt10unique_ptrISt18codecvt_utf8_utf16IDsLm1114111ELSt12codecvt_mode0EESt14default_deleteIS2_EED2Ev
	.type	_ZNSt10unique_ptrISt18codecvt_utf8_utf16IDsLm1114111ELSt12codecvt_mode0EESt14default_deleteIS2_EED2Ev, @function
_ZNSt10unique_ptrISt18codecvt_utf8_utf16IDsLm1114111ELSt12codecvt_mode0EESt14default_deleteIS2_EED2Ev:
.LFB8278:
	.cfi_startproc
	pushq	%rbp
	.cfi_def_cfa_offset 16
	.cfi_offset 6, -16
	movq	%rsp, %rbp
	.cfi_def_cfa_register 6
	pushq	%rbx
	subq	$40, %rsp
	.cfi_offset 3, -24
	movq	%rdi, -40(%rbp)
	movq	-40(%rbp), %rax
	movq	%rax, %rdi
	call	_ZSt3getILm0EJPSt18codecvt_utf8_utf16IDsLm1114111ELSt12codecvt_mode0EESt14default_deleteIS2_EEERNSt13tuple_elementIXT_ESt5tupleIJDpT0_EEE4typeERSA_
	movq	%rax, -24(%rbp)
	movq	-24(%rbp), %rax
	movq	(%rax), %rax
	testq	%rax, %rax
	je	.L394
	movq	-24(%rbp), %rax
	movq	(%rax), %rbx
	movq	-40(%rbp), %rax
	movq	%rax, %rdi
	call	_ZNSt10unique_ptrISt18codecvt_utf8_utf16IDsLm1114111ELSt12codecvt_mode0EESt14default_deleteIS2_EE11get_deleterEv
	movq	%rbx, %rsi
	movq	%rax, %rdi
	call	_ZNKSt14default_deleteISt18codecvt_utf8_utf16IDsLm1114111ELSt12codecvt_mode0EEEclEPS2_
.L394:
	movq	-24(%rbp), %rax
	movq	$0, (%rax)
	nop
	addq	$40, %rsp
	popq	%rbx
	popq	%rbp
	.cfi_def_cfa 7, 8
	ret
	.cfi_endproc
.LFE8278:
	.size	_ZNSt10unique_ptrISt18codecvt_utf8_utf16IDsLm1114111ELSt12codecvt_mode0EESt14default_deleteIS2_EED2Ev, .-_ZNSt10unique_ptrISt18codecvt_utf8_utf16IDsLm1114111ELSt12codecvt_mode0EESt14default_deleteIS2_EED2Ev
	.weak	_ZNSt10unique_ptrISt18codecvt_utf8_utf16IDsLm1114111ELSt12codecvt_mode0EESt14default_deleteIS2_EED1Ev
	.set	_ZNSt10unique_ptrISt18codecvt_utf8_utf16IDsLm1114111ELSt12codecvt_mode0EESt14default_deleteIS2_EED1Ev,_ZNSt10unique_ptrISt18codecvt_utf8_utf16IDsLm1114111ELSt12codecvt_mode0EESt14default_deleteIS2_EED2Ev
	.section	.text._ZNSt7__cxx1112basic_stringIDsSt11char_traitsIDsESaIDsEE12_Alloc_hiderD2Ev,"axG",@progbits,_ZNSt7__cxx1112basic_stringIDsSt11char_traitsIDsESaIDsEE12_Alloc_hiderD5Ev,comdat
	.align 2
	.weak	_ZNSt7__cxx1112basic_stringIDsSt11char_traitsIDsESaIDsEE12_Alloc_hiderD2Ev
	.type	_ZNSt7__cxx1112basic_stringIDsSt11char_traitsIDsESaIDsEE12_Alloc_hiderD2Ev, @function
_ZNSt7__cxx1112basic_stringIDsSt11char_traitsIDsESaIDsEE12_Alloc_hiderD2Ev:
.LFB8282:
	.cfi_startproc
	pushq	%rbp
	.cfi_def_cfa_offset 16
	.cfi_offset 6, -16
	movq	%rsp, %rbp
	.cfi_def_cfa_register 6
	subq	$16, %rsp
	movq	%rdi, -8(%rbp)
	movq	-8(%rbp), %rax
	movq	%rax, %rdi
	call	_ZNSaIDsED2Ev
	nop
	leave
	.cfi_def_cfa 7, 8
	ret
	.cfi_endproc
.LFE8282:
	.size	_ZNSt7__cxx1112basic_stringIDsSt11char_traitsIDsESaIDsEE12_Alloc_hiderD2Ev, .-_ZNSt7__cxx1112basic_stringIDsSt11char_traitsIDsESaIDsEE12_Alloc_hiderD2Ev
	.weak	_ZNSt7__cxx1112basic_stringIDsSt11char_traitsIDsESaIDsEE12_Alloc_hiderD1Ev
	.set	_ZNSt7__cxx1112basic_stringIDsSt11char_traitsIDsESaIDsEE12_Alloc_hiderD1Ev,_ZNSt7__cxx1112basic_stringIDsSt11char_traitsIDsESaIDsEE12_Alloc_hiderD2Ev
	.section	.text._ZNSt7__cxx1112basic_stringIDsSt11char_traitsIDsESaIDsEED2Ev,"axG",@progbits,_ZNSt7__cxx1112basic_stringIDsSt11char_traitsIDsESaIDsEED5Ev,comdat
	.align 2
	.weak	_ZNSt7__cxx1112basic_stringIDsSt11char_traitsIDsESaIDsEED2Ev
	.type	_ZNSt7__cxx1112basic_stringIDsSt11char_traitsIDsESaIDsEED2Ev, @function
_ZNSt7__cxx1112basic_stringIDsSt11char_traitsIDsESaIDsEED2Ev:
.LFB8284:
	.cfi_startproc
	.cfi_personality 0x3,__gxx_personality_v0
	.cfi_lsda 0x3,.LLSDA8284
	pushq	%rbp
	.cfi_def_cfa_offset 16
	.cfi_offset 6, -16
	movq	%rsp, %rbp
	.cfi_def_cfa_register 6
	subq	$16, %rsp
	movq	%rdi, -8(%rbp)
	movq	-8(%rbp), %rax
	movq	%rax, %rdi
	call	_ZNSt7__cxx1112basic_stringIDsSt11char_traitsIDsESaIDsEE10_M_disposeEv
	movq	-8(%rbp), %rax
	movq	%rax, %rdi
	call	_ZNSt7__cxx1112basic_stringIDsSt11char_traitsIDsESaIDsEE12_Alloc_hiderD1Ev
	nop
	leave
	.cfi_def_cfa 7, 8
	ret
	.cfi_endproc
.LFE8284:
	.section	.gcc_except_table
.LLSDA8284:
	.byte	0xff
	.byte	0xff
	.byte	0x1
	.uleb128 .LLSDACSE8284-.LLSDACSB8284
.LLSDACSB8284:
.LLSDACSE8284:
	.section	.text._ZNSt7__cxx1112basic_stringIDsSt11char_traitsIDsESaIDsEED2Ev,"axG",@progbits,_ZNSt7__cxx1112basic_stringIDsSt11char_traitsIDsESaIDsEED5Ev,comdat
	.size	_ZNSt7__cxx1112basic_stringIDsSt11char_traitsIDsESaIDsEED2Ev, .-_ZNSt7__cxx1112basic_stringIDsSt11char_traitsIDsESaIDsEED2Ev
	.weak	_ZNSt7__cxx1112basic_stringIDsSt11char_traitsIDsESaIDsEED1Ev
	.set	_ZNSt7__cxx1112basic_stringIDsSt11char_traitsIDsESaIDsEED1Ev,_ZNSt7__cxx1112basic_stringIDsSt11char_traitsIDsESaIDsEED2Ev
	.section	.text._ZNSt7__cxx1115wstring_convertISt18codecvt_utf8_utf16IDsLm1114111ELSt12codecvt_mode0EEDsSaIDsESaIcEE8to_bytesERKNS_12basic_stringIDsSt11char_traitsIDsES4_EE,"axG",@progbits,_ZNSt7__cxx1115wstring_convertISt18codecvt_utf8_utf16IDsLm1114111ELSt12codecvt_mode0EEDsSaIDsESaIcEE8to_bytesERKNS_12basic_stringIDsSt11char_traitsIDsES4_EE,comdat
	.align 2
	.weak	_ZNSt7__cxx1115wstring_convertISt18codecvt_utf8_utf16IDsLm1114111ELSt12codecvt_mode0EEDsSaIDsESaIcEE8to_bytesERKNS_12basic_stringIDsSt11char_traitsIDsES4_EE
	.type	_ZNSt7__cxx1115wstring_convertISt18codecvt_utf8_utf16IDsLm1114111ELSt12codecvt_mode0EEDsSaIDsESaIcEE8to_bytesERKNS_12basic_stringIDsSt11char_traitsIDsES4_EE, @function
_ZNSt7__cxx1115wstring_convertISt18codecvt_utf8_utf16IDsLm1114111ELSt12codecvt_mode0EEDsSaIDsESaIcEE8to_bytesERKNS_12basic_stringIDsSt11char_traitsIDsES4_EE:
.LFB8286:
	.cfi_startproc
	pushq	%rbp
	.cfi_def_cfa_offset 16
	.cfi_offset 6, -16
	movq	%rsp, %rbp
	.cfi_def_cfa_register 6
	subq	$48, %rsp
	movq	%rdi, -24(%rbp)
	movq	%rsi, -32(%rbp)
	movq	%rdx, -40(%rbp)
	movq	%fs:40, %rax
	movq	%rax, -8(%rbp)
	xorl	%eax, %eax
	movq	-40(%rbp), %rax
	movq	%rax, %rdi
	call	_ZNKSt7__cxx1112basic_stringIDsSt11char_traitsIDsESaIDsEE4dataEv
	movq	%rax, -16(%rbp)
	movq	-40(%rbp), %rax
	movq	%rax, %rdi
	call	_ZNKSt7__cxx1112basic_stringIDsSt11char_traitsIDsESaIDsEE4sizeEv
	leaq	(%rax,%rax), %rdx
	movq	-16(%rbp), %rax
	leaq	(%rdx,%rax), %rcx
	movq	-24(%rbp), %rax
	movq	-16(%rbp), %rdx
	movq	-32(%rbp), %rsi
	movq	%rax, %rdi
	call	_ZNSt7__cxx1115wstring_convertISt18codecvt_utf8_utf16IDsLm1114111ELSt12codecvt_mode0EEDsSaIDsESaIcEE8to_bytesEPKDsS8_
	movq	-24(%rbp), %rax
	movq	-8(%rbp), %rcx
	xorq	%fs:40, %rcx
	je	.L399
	call	__stack_chk_fail
.L399:
	leave
	.cfi_def_cfa 7, 8
	ret
	.cfi_endproc
.LFE8286:
	.size	_ZNSt7__cxx1115wstring_convertISt18codecvt_utf8_utf16IDsLm1114111ELSt12codecvt_mode0EEDsSaIDsESaIcEE8to_bytesERKNS_12basic_stringIDsSt11char_traitsIDsES4_EE, .-_ZNSt7__cxx1115wstring_convertISt18codecvt_utf8_utf16IDsLm1114111ELSt12codecvt_mode0EEDsSaIDsESaIcEE8to_bytesERKNS_12basic_stringIDsSt11char_traitsIDsES4_EE
	.section	.text._ZNSt7__cxx1115wstring_convertISt18codecvt_utf8_utf16IDsLm1114111ELSt12codecvt_mode0EEDsSaIDsESaIcEE10from_bytesERKNS_12basic_stringIcSt11char_traitsIcES5_EE,"axG",@progbits,_ZNSt7__cxx1115wstring_convertISt18codecvt_utf8_utf16IDsLm1114111ELSt12codecvt_mode0EEDsSaIDsESaIcEE10from_bytesERKNS_12basic_stringIcSt11char_traitsIcES5_EE,comdat
	.align 2
	.weak	_ZNSt7__cxx1115wstring_convertISt18codecvt_utf8_utf16IDsLm1114111ELSt12codecvt_mode0EEDsSaIDsESaIcEE10from_bytesERKNS_12basic_stringIcSt11char_traitsIcES5_EE
	.type	_ZNSt7__cxx1115wstring_convertISt18codecvt_utf8_utf16IDsLm1114111ELSt12codecvt_mode0EEDsSaIDsESaIcEE10from_bytesERKNS_12basic_stringIcSt11char_traitsIcES5_EE, @function
_ZNSt7__cxx1115wstring_convertISt18codecvt_utf8_utf16IDsLm1114111ELSt12codecvt_mode0EEDsSaIDsESaIcEE10from_bytesERKNS_12basic_stringIcSt11char_traitsIcES5_EE:
.LFB8287:
	.cfi_startproc
	pushq	%rbp
	.cfi_def_cfa_offset 16
	.cfi_offset 6, -16
	movq	%rsp, %rbp
	.cfi_def_cfa_register 6
	subq	$48, %rsp
	movq	%rdi, -24(%rbp)
	movq	%rsi, -32(%rbp)
	movq	%rdx, -40(%rbp)
	movq	%fs:40, %rax
	movq	%rax, -8(%rbp)
	xorl	%eax, %eax
	movq	-40(%rbp), %rax
	movq	%rax, %rdi
	call	_ZNKSt7__cxx1112basic_stringIcSt11char_traitsIcESaIcEE4dataEv
	movq	%rax, -16(%rbp)
	movq	-40(%rbp), %rax
	movq	%rax, %rdi
	call	_ZNKSt7__cxx1112basic_stringIcSt11char_traitsIcESaIcEE4sizeEv
	movq	%rax, %rdx
	movq	-16(%rbp), %rax
	leaq	(%rdx,%rax), %rcx
	movq	-24(%rbp), %rax
	movq	-16(%rbp), %rdx
	movq	-32(%rbp), %rsi
	movq	%rax, %rdi
	call	_ZNSt7__cxx1115wstring_convertISt18codecvt_utf8_utf16IDsLm1114111ELSt12codecvt_mode0EEDsSaIDsESaIcEE10from_bytesEPKcS8_
	movq	-24(%rbp), %rax
	movq	-8(%rbp), %rcx
	xorq	%fs:40, %rcx
	je	.L402
	call	__stack_chk_fail
.L402:
	leave
	.cfi_def_cfa 7, 8
	ret
	.cfi_endproc
.LFE8287:
	.size	_ZNSt7__cxx1115wstring_convertISt18codecvt_utf8_utf16IDsLm1114111ELSt12codecvt_mode0EEDsSaIDsESaIcEE10from_bytesERKNS_12basic_stringIcSt11char_traitsIcES5_EE, .-_ZNSt7__cxx1115wstring_convertISt18codecvt_utf8_utf16IDsLm1114111ELSt12codecvt_mode0EEDsSaIDsESaIcEE10from_bytesERKNS_12basic_stringIcSt11char_traitsIcES5_EE
	.section	.text._ZSt4moveIRSaIDsEEONSt16remove_referenceIT_E4typeEOS3_,"axG",@progbits,_ZSt4moveIRSaIDsEEONSt16remove_referenceIT_E4typeEOS3_,comdat
	.weak	_ZSt4moveIRSaIDsEEONSt16remove_referenceIT_E4typeEOS3_
	.type	_ZSt4moveIRSaIDsEEONSt16remove_referenceIT_E4typeEOS3_, @function
_ZSt4moveIRSaIDsEEONSt16remove_referenceIT_E4typeEOS3_:
.LFB8289:
	.cfi_startproc
	pushq	%rbp
	.cfi_def_cfa_offset 16
	.cfi_offset 6, -16
	movq	%rsp, %rbp
	.cfi_def_cfa_register 6
	movq	%rdi, -8(%rbp)
	movq	-8(%rbp), %rax
	popq	%rbp
	.cfi_def_cfa 7, 8
	ret
	.cfi_endproc
.LFE8289:
	.size	_ZSt4moveIRSaIDsEEONSt16remove_referenceIT_E4typeEOS3_, .-_ZSt4moveIRSaIDsEEONSt16remove_referenceIT_E4typeEOS3_
	.section	.text._ZNSt7__cxx1112basic_stringIDsSt11char_traitsIDsESaIDsEEC2EOS4_,"axG",@progbits,_ZNSt7__cxx1112basic_stringIDsSt11char_traitsIDsESaIDsEEC5EOS4_,comdat
	.align 2
	.weak	_ZNSt7__cxx1112basic_stringIDsSt11char_traitsIDsESaIDsEEC2EOS4_
	.type	_ZNSt7__cxx1112basic_stringIDsSt11char_traitsIDsESaIDsEEC2EOS4_, @function
_ZNSt7__cxx1112basic_stringIDsSt11char_traitsIDsESaIDsEEC2EOS4_:
.LFB8290:
	.cfi_startproc
	.cfi_personality 0x3,__gxx_personality_v0
	.cfi_lsda 0x3,.LLSDA8290
	pushq	%rbp
	.cfi_def_cfa_offset 16
	.cfi_offset 6, -16
	movq	%rsp, %rbp
	.cfi_def_cfa_register 6
	pushq	%rbx
	subq	$24, %rsp
	.cfi_offset 3, -24
	movq	%rdi, -24(%rbp)
	movq	%rsi, -32(%rbp)
	movq	-32(%rbp), %rax
	movq	%rax, %rdi
	call	_ZNSt7__cxx1112basic_stringIDsSt11char_traitsIDsESaIDsEE16_M_get_allocatorEv
	movq	%rax, %rdi
	call	_ZSt4moveIRSaIDsEEONSt16remove_referenceIT_E4typeEOS3_
	movq	%rax, %rbx
	movq	-24(%rbp), %rax
	movq	%rax, %rdi
	call	_ZNSt7__cxx1112basic_stringIDsSt11char_traitsIDsESaIDsEE13_M_local_dataEv
	movq	%rax, %rcx
	movq	-24(%rbp), %rax
	movq	%rbx, %rdx
	movq	%rcx, %rsi
	movq	%rax, %rdi
	call	_ZNSt7__cxx1112basic_stringIDsSt11char_traitsIDsESaIDsEE12_Alloc_hiderC1EPDsRKS3_
	movq	-32(%rbp), %rax
	movq	%rax, %rdi
	call	_ZNKSt7__cxx1112basic_stringIDsSt11char_traitsIDsESaIDsEE11_M_is_localEv
	testb	%al, %al
	je	.L406
	movq	-32(%rbp), %rax
	leaq	16(%rax), %rcx
	movq	-24(%rbp), %rax
	addq	$16, %rax
	movl	$8, %edx
	movq	%rcx, %rsi
	movq	%rax, %rdi
	call	_ZNSt11char_traitsIDsE4copyEPDsPKDsm
	jmp	.L407
.L406:
	movq	-32(%rbp), %rax
	movq	%rax, %rdi
	call	_ZNKSt7__cxx1112basic_stringIDsSt11char_traitsIDsESaIDsEE7_M_dataEv
	movq	%rax, %rdx
	movq	-24(%rbp), %rax
	movq	%rdx, %rsi
	movq	%rax, %rdi
	call	_ZNSt7__cxx1112basic_stringIDsSt11char_traitsIDsESaIDsEE7_M_dataEPDs
	movq	-32(%rbp), %rax
	movq	16(%rax), %rdx
	movq	-24(%rbp), %rax
	movq	%rdx, %rsi
	movq	%rax, %rdi
	call	_ZNSt7__cxx1112basic_stringIDsSt11char_traitsIDsESaIDsEE11_M_capacityEm
.L407:
	movq	-32(%rbp), %rax
	movq	%rax, %rdi
	call	_ZNKSt7__cxx1112basic_stringIDsSt11char_traitsIDsESaIDsEE6lengthEv
	movq	%rax, %rdx
	movq	-24(%rbp), %rax
	movq	%rdx, %rsi
	movq	%rax, %rdi
	call	_ZNSt7__cxx1112basic_stringIDsSt11char_traitsIDsESaIDsEE9_M_lengthEm
	movq	-32(%rbp), %rax
	movq	%rax, %rdi
	call	_ZNSt7__cxx1112basic_stringIDsSt11char_traitsIDsESaIDsEE13_M_local_dataEv
	movq	%rax, %rdx
	movq	-32(%rbp), %rax
	movq	%rdx, %rsi
	movq	%rax, %rdi
	call	_ZNSt7__cxx1112basic_stringIDsSt11char_traitsIDsESaIDsEE7_M_dataEPDs
	movq	-32(%rbp), %rax
	movl	$0, %esi
	movq	%rax, %rdi
	call	_ZNSt7__cxx1112basic_stringIDsSt11char_traitsIDsESaIDsEE13_M_set_lengthEm
	nop
	addq	$24, %rsp
	popq	%rbx
	popq	%rbp
	.cfi_def_cfa 7, 8
	ret
	.cfi_endproc
.LFE8290:
	.section	.gcc_except_table
.LLSDA8290:
	.byte	0xff
	.byte	0xff
	.byte	0x1
	.uleb128 .LLSDACSE8290-.LLSDACSB8290
.LLSDACSB8290:
.LLSDACSE8290:
	.section	.text._ZNSt7__cxx1112basic_stringIDsSt11char_traitsIDsESaIDsEEC2EOS4_,"axG",@progbits,_ZNSt7__cxx1112basic_stringIDsSt11char_traitsIDsESaIDsEEC5EOS4_,comdat
	.size	_ZNSt7__cxx1112basic_stringIDsSt11char_traitsIDsESaIDsEEC2EOS4_, .-_ZNSt7__cxx1112basic_stringIDsSt11char_traitsIDsESaIDsEEC2EOS4_
	.weak	_ZNSt7__cxx1112basic_stringIDsSt11char_traitsIDsESaIDsEEC1EOS4_
	.set	_ZNSt7__cxx1112basic_stringIDsSt11char_traitsIDsESaIDsEEC1EOS4_,_ZNSt7__cxx1112basic_stringIDsSt11char_traitsIDsESaIDsEEC2EOS4_
	.section	.text._ZNSt6vectorINSt7__cxx1112basic_stringIDsSt11char_traitsIDsESaIDsEEESaIS5_EEC2Ev,"axG",@progbits,_ZNSt6vectorINSt7__cxx1112basic_stringIDsSt11char_traitsIDsESaIDsEEESaIS5_EEC5Ev,comdat
	.align 2
	.weak	_ZNSt6vectorINSt7__cxx1112basic_stringIDsSt11char_traitsIDsESaIDsEEESaIS5_EEC2Ev
	.type	_ZNSt6vectorINSt7__cxx1112basic_stringIDsSt11char_traitsIDsESaIDsEEESaIS5_EEC2Ev, @function
_ZNSt6vectorINSt7__cxx1112basic_stringIDsSt11char_traitsIDsESaIDsEEESaIS5_EEC2Ev:
.LFB8293:
	.cfi_startproc
	.cfi_personality 0x3,__gxx_personality_v0
	.cfi_lsda 0x3,.LLSDA8293
	pushq	%rbp
	.cfi_def_cfa_offset 16
	.cfi_offset 6, -16
	movq	%rsp, %rbp
	.cfi_def_cfa_register 6
	subq	$16, %rsp
	movq	%rdi, -8(%rbp)
	movq	-8(%rbp), %rax
	movq	%rax, %rdi
	call	_ZNSt12_Vector_baseINSt7__cxx1112basic_stringIDsSt11char_traitsIDsESaIDsEEESaIS5_EEC2Ev
	nop
	leave
	.cfi_def_cfa 7, 8
	ret
	.cfi_endproc
.LFE8293:
	.section	.gcc_except_table
.LLSDA8293:
	.byte	0xff
	.byte	0xff
	.byte	0x1
	.uleb128 .LLSDACSE8293-.LLSDACSB8293
.LLSDACSB8293:
.LLSDACSE8293:
	.section	.text._ZNSt6vectorINSt7__cxx1112basic_stringIDsSt11char_traitsIDsESaIDsEEESaIS5_EEC2Ev,"axG",@progbits,_ZNSt6vectorINSt7__cxx1112basic_stringIDsSt11char_traitsIDsESaIDsEEESaIS5_EEC5Ev,comdat
	.size	_ZNSt6vectorINSt7__cxx1112basic_stringIDsSt11char_traitsIDsESaIDsEEESaIS5_EEC2Ev, .-_ZNSt6vectorINSt7__cxx1112basic_stringIDsSt11char_traitsIDsESaIDsEEESaIS5_EEC2Ev
	.weak	_ZNSt6vectorINSt7__cxx1112basic_stringIDsSt11char_traitsIDsESaIDsEEESaIS5_EEC1Ev
	.set	_ZNSt6vectorINSt7__cxx1112basic_stringIDsSt11char_traitsIDsESaIDsEEESaIS5_EEC1Ev,_ZNSt6vectorINSt7__cxx1112basic_stringIDsSt11char_traitsIDsESaIDsEEESaIS5_EEC2Ev
	.section	.text._ZNSt6vectorINSt7__cxx1112basic_stringIDsSt11char_traitsIDsESaIDsEEESaIS5_EED2Ev,"axG",@progbits,_ZNSt6vectorINSt7__cxx1112basic_stringIDsSt11char_traitsIDsESaIDsEEESaIS5_EED5Ev,comdat
	.align 2
	.weak	_ZNSt6vectorINSt7__cxx1112basic_stringIDsSt11char_traitsIDsESaIDsEEESaIS5_EED2Ev
	.type	_ZNSt6vectorINSt7__cxx1112basic_stringIDsSt11char_traitsIDsESaIDsEEESaIS5_EED2Ev, @function
_ZNSt6vectorINSt7__cxx1112basic_stringIDsSt11char_traitsIDsESaIDsEEESaIS5_EED2Ev:
.LFB8296:
	.cfi_startproc
	.cfi_personality 0x3,__gxx_personality_v0
	.cfi_lsda 0x3,.LLSDA8296
	pushq	%rbp
	.cfi_def_cfa_offset 16
	.cfi_offset 6, -16
	movq	%rsp, %rbp
	.cfi_def_cfa_register 6
	subq	$16, %rsp
	movq	%rdi, -8(%rbp)
	movq	-8(%rbp), %rax
	movq	%rax, %rdi
	call	_ZNSt12_Vector_baseINSt7__cxx1112basic_stringIDsSt11char_traitsIDsESaIDsEEESaIS5_EE19_M_get_Tp_allocatorEv
	movq	%rax, %rdx
	movq	-8(%rbp), %rax
	movq	8(%rax), %rcx
	movq	-8(%rbp), %rax
	movq	(%rax), %rax
	movq	%rcx, %rsi
	movq	%rax, %rdi
	call	_ZSt8_DestroyIPNSt7__cxx1112basic_stringIDsSt11char_traitsIDsESaIDsEEES5_EvT_S7_RSaIT0_E
	movq	-8(%rbp), %rax
	movq	%rax, %rdi
	call	_ZNSt12_Vector_baseINSt7__cxx1112basic_stringIDsSt11char_traitsIDsESaIDsEEESaIS5_EED2Ev
	nop
	leave
	.cfi_def_cfa 7, 8
	ret
	.cfi_endproc
.LFE8296:
	.section	.gcc_except_table
.LLSDA8296:
	.byte	0xff
	.byte	0xff
	.byte	0x1
	.uleb128 .LLSDACSE8296-.LLSDACSB8296
.LLSDACSB8296:
.LLSDACSE8296:
	.section	.text._ZNSt6vectorINSt7__cxx1112basic_stringIDsSt11char_traitsIDsESaIDsEEESaIS5_EED2Ev,"axG",@progbits,_ZNSt6vectorINSt7__cxx1112basic_stringIDsSt11char_traitsIDsESaIDsEEESaIS5_EED5Ev,comdat
	.size	_ZNSt6vectorINSt7__cxx1112basic_stringIDsSt11char_traitsIDsESaIDsEEESaIS5_EED2Ev, .-_ZNSt6vectorINSt7__cxx1112basic_stringIDsSt11char_traitsIDsESaIDsEEESaIS5_EED2Ev
	.weak	_ZNSt6vectorINSt7__cxx1112basic_stringIDsSt11char_traitsIDsESaIDsEEESaIS5_EED1Ev
	.set	_ZNSt6vectorINSt7__cxx1112basic_stringIDsSt11char_traitsIDsESaIDsEEESaIS5_EED1Ev,_ZNSt6vectorINSt7__cxx1112basic_stringIDsSt11char_traitsIDsESaIDsEEESaIS5_EED2Ev
	.section	.text._ZNSt6vectorINSt7__cxx1112basic_stringIDsSt11char_traitsIDsESaIDsEEESaIS5_EE5beginEv,"axG",@progbits,_ZNSt6vectorINSt7__cxx1112basic_stringIDsSt11char_traitsIDsESaIDsEEESaIS5_EE5beginEv,comdat
	.align 2
	.weak	_ZNSt6vectorINSt7__cxx1112basic_stringIDsSt11char_traitsIDsESaIDsEEESaIS5_EE5beginEv
	.type	_ZNSt6vectorINSt7__cxx1112basic_stringIDsSt11char_traitsIDsESaIDsEEESaIS5_EE5beginEv, @function
_ZNSt6vectorINSt7__cxx1112basic_stringIDsSt11char_traitsIDsESaIDsEEESaIS5_EE5beginEv:
.LFB8298:
	.cfi_startproc
	pushq	%rbp
	.cfi_def_cfa_offset 16
	.cfi_offset 6, -16
	movq	%rsp, %rbp
	.cfi_def_cfa_register 6
	subq	$32, %rsp
	movq	%rdi, -24(%rbp)
	movq	%fs:40, %rax
	movq	%rax, -8(%rbp)
	xorl	%eax, %eax
	movq	-24(%rbp), %rdx
	leaq	-16(%rbp), %rax
	movq	%rdx, %rsi
	movq	%rax, %rdi
	call	_ZN9__gnu_cxx17__normal_iteratorIPNSt7__cxx1112basic_stringIDsSt11char_traitsIDsESaIDsEEESt6vectorIS6_SaIS6_EEEC1ERKS7_
	movq	-16(%rbp), %rax
	movq	-8(%rbp), %rcx
	xorq	%fs:40, %rcx
	je	.L412
	call	__stack_chk_fail
.L412:
	leave
	.cfi_def_cfa 7, 8
	ret
	.cfi_endproc
.LFE8298:
	.size	_ZNSt6vectorINSt7__cxx1112basic_stringIDsSt11char_traitsIDsESaIDsEEESaIS5_EE5beginEv, .-_ZNSt6vectorINSt7__cxx1112basic_stringIDsSt11char_traitsIDsESaIDsEEESaIS5_EE5beginEv
	.section	.text._ZNSt6vectorINSt7__cxx1112basic_stringIDsSt11char_traitsIDsESaIDsEEESaIS5_EE3endEv,"axG",@progbits,_ZNSt6vectorINSt7__cxx1112basic_stringIDsSt11char_traitsIDsESaIDsEEESaIS5_EE3endEv,comdat
	.align 2
	.weak	_ZNSt6vectorINSt7__cxx1112basic_stringIDsSt11char_traitsIDsESaIDsEEESaIS5_EE3endEv
	.type	_ZNSt6vectorINSt7__cxx1112basic_stringIDsSt11char_traitsIDsESaIDsEEESaIS5_EE3endEv, @function
_ZNSt6vectorINSt7__cxx1112basic_stringIDsSt11char_traitsIDsESaIDsEEESaIS5_EE3endEv:
.LFB8299:
	.cfi_startproc
	pushq	%rbp
	.cfi_def_cfa_offset 16
	.cfi_offset 6, -16
	movq	%rsp, %rbp
	.cfi_def_cfa_register 6
	subq	$32, %rsp
	movq	%rdi, -24(%rbp)
	movq	%fs:40, %rax
	movq	%rax, -8(%rbp)
	xorl	%eax, %eax
	movq	-24(%rbp), %rax
	leaq	8(%rax), %rdx
	leaq	-16(%rbp), %rax
	movq	%rdx, %rsi
	movq	%rax, %rdi
	call	_ZN9__gnu_cxx17__normal_iteratorIPNSt7__cxx1112basic_stringIDsSt11char_traitsIDsESaIDsEEESt6vectorIS6_SaIS6_EEEC1ERKS7_
	movq	-16(%rbp), %rax
	movq	-8(%rbp), %rcx
	xorq	%fs:40, %rcx
	je	.L415
	call	__stack_chk_fail
.L415:
	leave
	.cfi_def_cfa 7, 8
	ret
	.cfi_endproc
.LFE8299:
	.size	_ZNSt6vectorINSt7__cxx1112basic_stringIDsSt11char_traitsIDsESaIDsEEESaIS5_EE3endEv, .-_ZNSt6vectorINSt7__cxx1112basic_stringIDsSt11char_traitsIDsESaIDsEEESaIS5_EE3endEv
	.section	.text._ZN9__gnu_cxxneIPNSt7__cxx1112basic_stringIDsSt11char_traitsIDsESaIDsEEESt6vectorIS6_SaIS6_EEEEbRKNS_17__normal_iteratorIT_T0_EESG_,"axG",@progbits,_ZN9__gnu_cxxneIPNSt7__cxx1112basic_stringIDsSt11char_traitsIDsESaIDsEEESt6vectorIS6_SaIS6_EEEEbRKNS_17__normal_iteratorIT_T0_EESG_,comdat
	.weak	_ZN9__gnu_cxxneIPNSt7__cxx1112basic_stringIDsSt11char_traitsIDsESaIDsEEESt6vectorIS6_SaIS6_EEEEbRKNS_17__normal_iteratorIT_T0_EESG_
	.type	_ZN9__gnu_cxxneIPNSt7__cxx1112basic_stringIDsSt11char_traitsIDsESaIDsEEESt6vectorIS6_SaIS6_EEEEbRKNS_17__normal_iteratorIT_T0_EESG_, @function
_ZN9__gnu_cxxneIPNSt7__cxx1112basic_stringIDsSt11char_traitsIDsESaIDsEEESt6vectorIS6_SaIS6_EEEEbRKNS_17__normal_iteratorIT_T0_EESG_:
.LFB8300:
	.cfi_startproc
	pushq	%rbp
	.cfi_def_cfa_offset 16
	.cfi_offset 6, -16
	movq	%rsp, %rbp
	.cfi_def_cfa_register 6
	pushq	%rbx
	subq	$24, %rsp
	.cfi_offset 3, -24
	movq	%rdi, -24(%rbp)
	movq	%rsi, -32(%rbp)
	movq	-24(%rbp), %rax
	movq	%rax, %rdi
	call	_ZNK9__gnu_cxx17__normal_iteratorIPNSt7__cxx1112basic_stringIDsSt11char_traitsIDsESaIDsEEESt6vectorIS6_SaIS6_EEE4baseEv
	movq	(%rax), %rbx
	movq	-32(%rbp), %rax
	movq	%rax, %rdi
	call	_ZNK9__gnu_cxx17__normal_iteratorIPNSt7__cxx1112basic_stringIDsSt11char_traitsIDsESaIDsEEESt6vectorIS6_SaIS6_EEE4baseEv
	movq	(%rax), %rax
	cmpq	%rax, %rbx
	setne	%al
	addq	$24, %rsp
	popq	%rbx
	popq	%rbp
	.cfi_def_cfa 7, 8
	ret
	.cfi_endproc
.LFE8300:
	.size	_ZN9__gnu_cxxneIPNSt7__cxx1112basic_stringIDsSt11char_traitsIDsESaIDsEEESt6vectorIS6_SaIS6_EEEEbRKNS_17__normal_iteratorIT_T0_EESG_, .-_ZN9__gnu_cxxneIPNSt7__cxx1112basic_stringIDsSt11char_traitsIDsESaIDsEEESt6vectorIS6_SaIS6_EEEEbRKNS_17__normal_iteratorIT_T0_EESG_
	.section	.text._ZN9__gnu_cxx17__normal_iteratorIPNSt7__cxx1112basic_stringIDsSt11char_traitsIDsESaIDsEEESt6vectorIS6_SaIS6_EEEppEv,"axG",@progbits,_ZN9__gnu_cxx17__normal_iteratorIPNSt7__cxx1112basic_stringIDsSt11char_traitsIDsESaIDsEEESt6vectorIS6_SaIS6_EEEppEv,comdat
	.align 2
	.weak	_ZN9__gnu_cxx17__normal_iteratorIPNSt7__cxx1112basic_stringIDsSt11char_traitsIDsESaIDsEEESt6vectorIS6_SaIS6_EEEppEv
	.type	_ZN9__gnu_cxx17__normal_iteratorIPNSt7__cxx1112basic_stringIDsSt11char_traitsIDsESaIDsEEESt6vectorIS6_SaIS6_EEEppEv, @function
_ZN9__gnu_cxx17__normal_iteratorIPNSt7__cxx1112basic_stringIDsSt11char_traitsIDsESaIDsEEESt6vectorIS6_SaIS6_EEEppEv:
.LFB8301:
	.cfi_startproc
	pushq	%rbp
	.cfi_def_cfa_offset 16
	.cfi_offset 6, -16
	movq	%rsp, %rbp
	.cfi_def_cfa_register 6
	movq	%rdi, -8(%rbp)
	movq	-8(%rbp), %rax
	movq	(%rax), %rax
	leaq	32(%rax), %rdx
	movq	-8(%rbp), %rax
	movq	%rdx, (%rax)
	movq	-8(%rbp), %rax
	popq	%rbp
	.cfi_def_cfa 7, 8
	ret
	.cfi_endproc
.LFE8301:
	.size	_ZN9__gnu_cxx17__normal_iteratorIPNSt7__cxx1112basic_stringIDsSt11char_traitsIDsESaIDsEEESt6vectorIS6_SaIS6_EEEppEv, .-_ZN9__gnu_cxx17__normal_iteratorIPNSt7__cxx1112basic_stringIDsSt11char_traitsIDsESaIDsEEESt6vectorIS6_SaIS6_EEEppEv
	.section	.text._ZNK9__gnu_cxx17__normal_iteratorIPNSt7__cxx1112basic_stringIDsSt11char_traitsIDsESaIDsEEESt6vectorIS6_SaIS6_EEEdeEv,"axG",@progbits,_ZNK9__gnu_cxx17__normal_iteratorIPNSt7__cxx1112basic_stringIDsSt11char_traitsIDsESaIDsEEESt6vectorIS6_SaIS6_EEEdeEv,comdat
	.align 2
	.weak	_ZNK9__gnu_cxx17__normal_iteratorIPNSt7__cxx1112basic_stringIDsSt11char_traitsIDsESaIDsEEESt6vectorIS6_SaIS6_EEEdeEv
	.type	_ZNK9__gnu_cxx17__normal_iteratorIPNSt7__cxx1112basic_stringIDsSt11char_traitsIDsESaIDsEEESt6vectorIS6_SaIS6_EEEdeEv, @function
_ZNK9__gnu_cxx17__normal_iteratorIPNSt7__cxx1112basic_stringIDsSt11char_traitsIDsESaIDsEEESt6vectorIS6_SaIS6_EEEdeEv:
.LFB8302:
	.cfi_startproc
	pushq	%rbp
	.cfi_def_cfa_offset 16
	.cfi_offset 6, -16
	movq	%rsp, %rbp
	.cfi_def_cfa_register 6
	movq	%rdi, -8(%rbp)
	movq	-8(%rbp), %rax
	movq	(%rax), %rax
	popq	%rbp
	.cfi_def_cfa 7, 8
	ret
	.cfi_endproc
.LFE8302:
	.size	_ZNK9__gnu_cxx17__normal_iteratorIPNSt7__cxx1112basic_stringIDsSt11char_traitsIDsESaIDsEEESt6vectorIS6_SaIS6_EEEdeEv, .-_ZNK9__gnu_cxx17__normal_iteratorIPNSt7__cxx1112basic_stringIDsSt11char_traitsIDsESaIDsEEESt6vectorIS6_SaIS6_EEEdeEv
	.section	.text._ZNSt7__cxx1112basic_stringIDsSt11char_traitsIDsESaIDsEEC2ERKS4_,"axG",@progbits,_ZNSt7__cxx1112basic_stringIDsSt11char_traitsIDsESaIDsEEC5ERKS4_,comdat
	.align 2
	.weak	_ZNSt7__cxx1112basic_stringIDsSt11char_traitsIDsESaIDsEEC2ERKS4_
	.type	_ZNSt7__cxx1112basic_stringIDsSt11char_traitsIDsESaIDsEEC2ERKS4_, @function
_ZNSt7__cxx1112basic_stringIDsSt11char_traitsIDsESaIDsEEC2ERKS4_:
.LFB8304:
	.cfi_startproc
	.cfi_personality 0x3,__gxx_personality_v0
	.cfi_lsda 0x3,.LLSDA8304
	pushq	%rbp
	.cfi_def_cfa_offset 16
	.cfi_offset 6, -16
	movq	%rsp, %rbp
	.cfi_def_cfa_register 6
	pushq	%rbx
	subq	$24, %rsp
	.cfi_offset 3, -24
	movq	%rdi, -24(%rbp)
	movq	%rsi, -32(%rbp)
	movq	-32(%rbp), %rax
	movq	%rax, %rdi
	call	_ZNKSt7__cxx1112basic_stringIDsSt11char_traitsIDsESaIDsEE16_M_get_allocatorEv
	movq	%rax, %rbx
	movq	-24(%rbp), %rax
	movq	%rax, %rdi
	call	_ZNSt7__cxx1112basic_stringIDsSt11char_traitsIDsESaIDsEE13_M_local_dataEv
	movq	%rax, %rcx
	movq	-24(%rbp), %rax
	movq	%rbx, %rdx
	movq	%rcx, %rsi
	movq	%rax, %rdi
	call	_ZNSt7__cxx1112basic_stringIDsSt11char_traitsIDsESaIDsEE12_Alloc_hiderC1EPDsRKS3_
	movq	-32(%rbp), %rax
	movq	%rax, %rdi
	call	_ZNKSt7__cxx1112basic_stringIDsSt11char_traitsIDsESaIDsEE7_M_dataEv
	movq	%rax, %rbx
	movq	-32(%rbp), %rax
	movq	%rax, %rdi
	call	_ZNKSt7__cxx1112basic_stringIDsSt11char_traitsIDsESaIDsEE6lengthEv
	addq	%rax, %rax
	addq	%rax, %rbx
	movq	-32(%rbp), %rax
	movq	%rax, %rdi
	call	_ZNKSt7__cxx1112basic_stringIDsSt11char_traitsIDsESaIDsEE7_M_dataEv
	movq	%rax, %rcx
	movq	-24(%rbp), %rax
	movq	%rbx, %rdx
	movq	%rcx, %rsi
	movq	%rax, %rdi
.LEHB81:
	call	_ZNSt7__cxx1112basic_stringIDsSt11char_traitsIDsESaIDsEE12_M_constructIPDsEEvT_S7_
.LEHE81:
	jmp	.L425
.L424:
	movq	%rax, %rbx
	movq	-24(%rbp), %rax
	movq	%rax, %rdi
	call	_ZNSt7__cxx1112basic_stringIDsSt11char_traitsIDsESaIDsEE12_Alloc_hiderD1Ev
	movq	%rbx, %rax
	movq	%rax, %rdi
.LEHB82:
	call	_Unwind_Resume
.LEHE82:
.L425:
	addq	$24, %rsp
	popq	%rbx
	popq	%rbp
	.cfi_def_cfa 7, 8
	ret
	.cfi_endproc
.LFE8304:
	.section	.gcc_except_table
.LLSDA8304:
	.byte	0xff
	.byte	0xff
	.byte	0x1
	.uleb128 .LLSDACSE8304-.LLSDACSB8304
.LLSDACSB8304:
	.uleb128 .LEHB81-.LFB8304
	.uleb128 .LEHE81-.LEHB81
	.uleb128 .L424-.LFB8304
	.uleb128 0
	.uleb128 .LEHB82-.LFB8304
	.uleb128 .LEHE82-.LEHB82
	.uleb128 0
	.uleb128 0
.LLSDACSE8304:
	.section	.text._ZNSt7__cxx1112basic_stringIDsSt11char_traitsIDsESaIDsEEC2ERKS4_,"axG",@progbits,_ZNSt7__cxx1112basic_stringIDsSt11char_traitsIDsESaIDsEEC5ERKS4_,comdat
	.size	_ZNSt7__cxx1112basic_stringIDsSt11char_traitsIDsESaIDsEEC2ERKS4_, .-_ZNSt7__cxx1112basic_stringIDsSt11char_traitsIDsESaIDsEEC2ERKS4_
	.weak	_ZNSt7__cxx1112basic_stringIDsSt11char_traitsIDsESaIDsEEC1ERKS4_
	.set	_ZNSt7__cxx1112basic_stringIDsSt11char_traitsIDsESaIDsEEC1ERKS4_,_ZNSt7__cxx1112basic_stringIDsSt11char_traitsIDsESaIDsEEC2ERKS4_
	.section	.text._ZNSt7__cxx1112basic_stringIDsSt11char_traitsIDsESaIDsEEC2Ev,"axG",@progbits,_ZNSt7__cxx1112basic_stringIDsSt11char_traitsIDsESaIDsEEC5Ev,comdat
	.align 2
	.weak	_ZNSt7__cxx1112basic_stringIDsSt11char_traitsIDsESaIDsEEC2Ev
	.type	_ZNSt7__cxx1112basic_stringIDsSt11char_traitsIDsESaIDsEEC2Ev, @function
_ZNSt7__cxx1112basic_stringIDsSt11char_traitsIDsESaIDsEEC2Ev:
.LFB8307:
	.cfi_startproc
	pushq	%rbp
	.cfi_def_cfa_offset 16
	.cfi_offset 6, -16
	movq	%rsp, %rbp
	.cfi_def_cfa_register 6
	subq	$32, %rsp
	movq	%rdi, -24(%rbp)
	movq	%fs:40, %rax
	movq	%rax, -8(%rbp)
	xorl	%eax, %eax
	leaq	-9(%rbp), %rax
	movq	%rax, %rdi
	call	_ZNSaIDsEC1Ev
	movq	-24(%rbp), %rax
	movq	%rax, %rdi
	call	_ZNSt7__cxx1112basic_stringIDsSt11char_traitsIDsESaIDsEE13_M_local_dataEv
	movq	%rax, %rcx
	movq	-24(%rbp), %rax
	leaq	-9(%rbp), %rdx
	movq	%rcx, %rsi
	movq	%rax, %rdi
	call	_ZNSt7__cxx1112basic_stringIDsSt11char_traitsIDsESaIDsEE12_Alloc_hiderC1EPDsRKS3_
	leaq	-9(%rbp), %rax
	movq	%rax, %rdi
	call	_ZNSaIDsED1Ev
	movq	-24(%rbp), %rax
	movl	$0, %esi
	movq	%rax, %rdi
	call	_ZNSt7__cxx1112basic_stringIDsSt11char_traitsIDsESaIDsEE13_M_set_lengthEm
	nop
	movq	-8(%rbp), %rax
	xorq	%fs:40, %rax
	je	.L427
	call	__stack_chk_fail
.L427:
	leave
	.cfi_def_cfa 7, 8
	ret
	.cfi_endproc
.LFE8307:
	.size	_ZNSt7__cxx1112basic_stringIDsSt11char_traitsIDsESaIDsEEC2Ev, .-_ZNSt7__cxx1112basic_stringIDsSt11char_traitsIDsESaIDsEEC2Ev
	.weak	_ZNSt7__cxx1112basic_stringIDsSt11char_traitsIDsESaIDsEEC1Ev
	.set	_ZNSt7__cxx1112basic_stringIDsSt11char_traitsIDsESaIDsEEC1Ev,_ZNSt7__cxx1112basic_stringIDsSt11char_traitsIDsESaIDsEEC2Ev
	.section	.text._ZNSt7__cxx1112basic_stringIDsSt11char_traitsIDsESaIDsEE5beginEv,"axG",@progbits,_ZNSt7__cxx1112basic_stringIDsSt11char_traitsIDsESaIDsEE5beginEv,comdat
	.align 2
	.weak	_ZNSt7__cxx1112basic_stringIDsSt11char_traitsIDsESaIDsEE5beginEv
	.type	_ZNSt7__cxx1112basic_stringIDsSt11char_traitsIDsESaIDsEE5beginEv, @function
_ZNSt7__cxx1112basic_stringIDsSt11char_traitsIDsESaIDsEE5beginEv:
.LFB8309:
	.cfi_startproc
	pushq	%rbp
	.cfi_def_cfa_offset 16
	.cfi_offset 6, -16
	movq	%rsp, %rbp
	.cfi_def_cfa_register 6
	subq	$48, %rsp
	movq	%rdi, -40(%rbp)
	movq	%fs:40, %rax
	movq	%rax, -8(%rbp)
	xorl	%eax, %eax
	movq	-40(%rbp), %rax
	movq	%rax, %rdi
	call	_ZNKSt7__cxx1112basic_stringIDsSt11char_traitsIDsESaIDsEE7_M_dataEv
	movq	%rax, -16(%rbp)
	leaq	-16(%rbp), %rdx
	leaq	-32(%rbp), %rax
	movq	%rdx, %rsi
	movq	%rax, %rdi
	call	_ZN9__gnu_cxx17__normal_iteratorIPDsNSt7__cxx1112basic_stringIDsSt11char_traitsIDsESaIDsEEEEC1ERKS1_
	movq	-32(%rbp), %rax
	movq	-8(%rbp), %rcx
	xorq	%fs:40, %rcx
	je	.L430
	call	__stack_chk_fail
.L430:
	leave
	.cfi_def_cfa 7, 8
	ret
	.cfi_endproc
.LFE8309:
	.size	_ZNSt7__cxx1112basic_stringIDsSt11char_traitsIDsESaIDsEE5beginEv, .-_ZNSt7__cxx1112basic_stringIDsSt11char_traitsIDsESaIDsEE5beginEv
	.section	.text._ZNSt7__cxx1112basic_stringIDsSt11char_traitsIDsESaIDsEE3endEv,"axG",@progbits,_ZNSt7__cxx1112basic_stringIDsSt11char_traitsIDsESaIDsEE3endEv,comdat
	.align 2
	.weak	_ZNSt7__cxx1112basic_stringIDsSt11char_traitsIDsESaIDsEE3endEv
	.type	_ZNSt7__cxx1112basic_stringIDsSt11char_traitsIDsESaIDsEE3endEv, @function
_ZNSt7__cxx1112basic_stringIDsSt11char_traitsIDsESaIDsEE3endEv:
.LFB8310:
	.cfi_startproc
	pushq	%rbp
	.cfi_def_cfa_offset 16
	.cfi_offset 6, -16
	movq	%rsp, %rbp
	.cfi_def_cfa_register 6
	pushq	%rbx
	subq	$56, %rsp
	.cfi_offset 3, -24
	movq	%rdi, -56(%rbp)
	movq	%fs:40, %rax
	movq	%rax, -24(%rbp)
	xorl	%eax, %eax
	movq	-56(%rbp), %rax
	movq	%rax, %rdi
	call	_ZNKSt7__cxx1112basic_stringIDsSt11char_traitsIDsESaIDsEE7_M_dataEv
	movq	%rax, %rbx
	movq	-56(%rbp), %rax
	movq	%rax, %rdi
	call	_ZNKSt7__cxx1112basic_stringIDsSt11char_traitsIDsESaIDsEE4sizeEv
	addq	%rax, %rax
	addq	%rbx, %rax
	movq	%rax, -32(%rbp)
	leaq	-32(%rbp), %rdx
	leaq	-48(%rbp), %rax
	movq	%rdx, %rsi
	movq	%rax, %rdi
	call	_ZN9__gnu_cxx17__normal_iteratorIPDsNSt7__cxx1112basic_stringIDsSt11char_traitsIDsESaIDsEEEEC1ERKS1_
	movq	-48(%rbp), %rax
	movq	-24(%rbp), %rcx
	xorq	%fs:40, %rcx
	je	.L433
	call	__stack_chk_fail
.L433:
	addq	$56, %rsp
	popq	%rbx
	popq	%rbp
	.cfi_def_cfa 7, 8
	ret
	.cfi_endproc
.LFE8310:
	.size	_ZNSt7__cxx1112basic_stringIDsSt11char_traitsIDsESaIDsEE3endEv, .-_ZNSt7__cxx1112basic_stringIDsSt11char_traitsIDsESaIDsEE3endEv
	.section	.text._ZN9__gnu_cxxneIPDsNSt7__cxx1112basic_stringIDsSt11char_traitsIDsESaIDsEEEEEbRKNS_17__normal_iteratorIT_T0_EESD_,"axG",@progbits,_ZN9__gnu_cxxneIPDsNSt7__cxx1112basic_stringIDsSt11char_traitsIDsESaIDsEEEEEbRKNS_17__normal_iteratorIT_T0_EESD_,comdat
	.weak	_ZN9__gnu_cxxneIPDsNSt7__cxx1112basic_stringIDsSt11char_traitsIDsESaIDsEEEEEbRKNS_17__normal_iteratorIT_T0_EESD_
	.type	_ZN9__gnu_cxxneIPDsNSt7__cxx1112basic_stringIDsSt11char_traitsIDsESaIDsEEEEEbRKNS_17__normal_iteratorIT_T0_EESD_, @function
_ZN9__gnu_cxxneIPDsNSt7__cxx1112basic_stringIDsSt11char_traitsIDsESaIDsEEEEEbRKNS_17__normal_iteratorIT_T0_EESD_:
.LFB8311:
	.cfi_startproc
	pushq	%rbp
	.cfi_def_cfa_offset 16
	.cfi_offset 6, -16
	movq	%rsp, %rbp
	.cfi_def_cfa_register 6
	pushq	%rbx
	subq	$24, %rsp
	.cfi_offset 3, -24
	movq	%rdi, -24(%rbp)
	movq	%rsi, -32(%rbp)
	movq	-24(%rbp), %rax
	movq	%rax, %rdi
	call	_ZNK9__gnu_cxx17__normal_iteratorIPDsNSt7__cxx1112basic_stringIDsSt11char_traitsIDsESaIDsEEEE4baseEv
	movq	(%rax), %rbx
	movq	-32(%rbp), %rax
	movq	%rax, %rdi
	call	_ZNK9__gnu_cxx17__normal_iteratorIPDsNSt7__cxx1112basic_stringIDsSt11char_traitsIDsESaIDsEEEE4baseEv
	movq	(%rax), %rax
	cmpq	%rax, %rbx
	setne	%al
	addq	$24, %rsp
	popq	%rbx
	popq	%rbp
	.cfi_def_cfa 7, 8
	ret
	.cfi_endproc
.LFE8311:
	.size	_ZN9__gnu_cxxneIPDsNSt7__cxx1112basic_stringIDsSt11char_traitsIDsESaIDsEEEEEbRKNS_17__normal_iteratorIT_T0_EESD_, .-_ZN9__gnu_cxxneIPDsNSt7__cxx1112basic_stringIDsSt11char_traitsIDsESaIDsEEEEEbRKNS_17__normal_iteratorIT_T0_EESD_
	.section	.text._ZN9__gnu_cxx17__normal_iteratorIPDsNSt7__cxx1112basic_stringIDsSt11char_traitsIDsESaIDsEEEEppEv,"axG",@progbits,_ZN9__gnu_cxx17__normal_iteratorIPDsNSt7__cxx1112basic_stringIDsSt11char_traitsIDsESaIDsEEEEppEv,comdat
	.align 2
	.weak	_ZN9__gnu_cxx17__normal_iteratorIPDsNSt7__cxx1112basic_stringIDsSt11char_traitsIDsESaIDsEEEEppEv
	.type	_ZN9__gnu_cxx17__normal_iteratorIPDsNSt7__cxx1112basic_stringIDsSt11char_traitsIDsESaIDsEEEEppEv, @function
_ZN9__gnu_cxx17__normal_iteratorIPDsNSt7__cxx1112basic_stringIDsSt11char_traitsIDsESaIDsEEEEppEv:
.LFB8312:
	.cfi_startproc
	pushq	%rbp
	.cfi_def_cfa_offset 16
	.cfi_offset 6, -16
	movq	%rsp, %rbp
	.cfi_def_cfa_register 6
	movq	%rdi, -8(%rbp)
	movq	-8(%rbp), %rax
	movq	(%rax), %rax
	leaq	2(%rax), %rdx
	movq	-8(%rbp), %rax
	movq	%rdx, (%rax)
	movq	-8(%rbp), %rax
	popq	%rbp
	.cfi_def_cfa 7, 8
	ret
	.cfi_endproc
.LFE8312:
	.size	_ZN9__gnu_cxx17__normal_iteratorIPDsNSt7__cxx1112basic_stringIDsSt11char_traitsIDsESaIDsEEEEppEv, .-_ZN9__gnu_cxx17__normal_iteratorIPDsNSt7__cxx1112basic_stringIDsSt11char_traitsIDsESaIDsEEEEppEv
	.section	.text._ZNK9__gnu_cxx17__normal_iteratorIPDsNSt7__cxx1112basic_stringIDsSt11char_traitsIDsESaIDsEEEEdeEv,"axG",@progbits,_ZNK9__gnu_cxx17__normal_iteratorIPDsNSt7__cxx1112basic_stringIDsSt11char_traitsIDsESaIDsEEEEdeEv,comdat
	.align 2
	.weak	_ZNK9__gnu_cxx17__normal_iteratorIPDsNSt7__cxx1112basic_stringIDsSt11char_traitsIDsESaIDsEEEEdeEv
	.type	_ZNK9__gnu_cxx17__normal_iteratorIPDsNSt7__cxx1112basic_stringIDsSt11char_traitsIDsESaIDsEEEEdeEv, @function
_ZNK9__gnu_cxx17__normal_iteratorIPDsNSt7__cxx1112basic_stringIDsSt11char_traitsIDsESaIDsEEEEdeEv:
.LFB8313:
	.cfi_startproc
	pushq	%rbp
	.cfi_def_cfa_offset 16
	.cfi_offset 6, -16
	movq	%rsp, %rbp
	.cfi_def_cfa_register 6
	movq	%rdi, -8(%rbp)
	movq	-8(%rbp), %rax
	movq	(%rax), %rax
	popq	%rbp
	.cfi_def_cfa 7, 8
	ret
	.cfi_endproc
.LFE8313:
	.size	_ZNK9__gnu_cxx17__normal_iteratorIPDsNSt7__cxx1112basic_stringIDsSt11char_traitsIDsESaIDsEEEEdeEv, .-_ZNK9__gnu_cxx17__normal_iteratorIPDsNSt7__cxx1112basic_stringIDsSt11char_traitsIDsESaIDsEEEEdeEv
	.section	.text._ZNSt7__cxx1112basic_stringIDsSt11char_traitsIDsESaIDsEEpLEDs,"axG",@progbits,_ZNSt7__cxx1112basic_stringIDsSt11char_traitsIDsESaIDsEEpLEDs,comdat
	.align 2
	.weak	_ZNSt7__cxx1112basic_stringIDsSt11char_traitsIDsESaIDsEEpLEDs
	.type	_ZNSt7__cxx1112basic_stringIDsSt11char_traitsIDsESaIDsEEpLEDs, @function
_ZNSt7__cxx1112basic_stringIDsSt11char_traitsIDsESaIDsEEpLEDs:
.LFB8314:
	.cfi_startproc
	pushq	%rbp
	.cfi_def_cfa_offset 16
	.cfi_offset 6, -16
	movq	%rsp, %rbp
	.cfi_def_cfa_register 6
	subq	$16, %rsp
	movq	%rdi, -8(%rbp)
	movl	%esi, %eax
	movw	%ax, -12(%rbp)
	movzwl	-12(%rbp), %edx
	movq	-8(%rbp), %rax
	movl	%edx, %esi
	movq	%rax, %rdi
	call	_ZNSt7__cxx1112basic_stringIDsSt11char_traitsIDsESaIDsEE9push_backEDs
	movq	-8(%rbp), %rax
	leave
	.cfi_def_cfa 7, 8
	ret
	.cfi_endproc
.LFE8314:
	.size	_ZNSt7__cxx1112basic_stringIDsSt11char_traitsIDsESaIDsEEpLEDs, .-_ZNSt7__cxx1112basic_stringIDsSt11char_traitsIDsESaIDsEEpLEDs
	.section	.text._ZNSt6vectorINSt7__cxx1112basic_stringIDsSt11char_traitsIDsESaIDsEEESaIS5_EE9push_backERKS5_,"axG",@progbits,_ZNSt6vectorINSt7__cxx1112basic_stringIDsSt11char_traitsIDsESaIDsEEESaIS5_EE9push_backERKS5_,comdat
	.align 2
	.weak	_ZNSt6vectorINSt7__cxx1112basic_stringIDsSt11char_traitsIDsESaIDsEEESaIS5_EE9push_backERKS5_
	.type	_ZNSt6vectorINSt7__cxx1112basic_stringIDsSt11char_traitsIDsESaIDsEEESaIS5_EE9push_backERKS5_, @function
_ZNSt6vectorINSt7__cxx1112basic_stringIDsSt11char_traitsIDsESaIDsEEESaIS5_EE9push_backERKS5_:
.LFB8315:
	.cfi_startproc
	pushq	%rbp
	.cfi_def_cfa_offset 16
	.cfi_offset 6, -16
	movq	%rsp, %rbp
	.cfi_def_cfa_register 6
	subq	$16, %rsp
	movq	%rdi, -8(%rbp)
	movq	%rsi, -16(%rbp)
	movq	-8(%rbp), %rax
	movq	8(%rax), %rdx
	movq	-8(%rbp), %rax
	movq	16(%rax), %rax
	cmpq	%rax, %rdx
	je	.L443
	movq	-8(%rbp), %rax
	movq	8(%rax), %rcx
	movq	-8(%rbp), %rax
	movq	-16(%rbp), %rdx
	movq	%rcx, %rsi
	movq	%rax, %rdi
	call	_ZNSt16allocator_traitsISaINSt7__cxx1112basic_stringIDsSt11char_traitsIDsESaIDsEEEEE9constructIS5_JRKS5_EEEvRS6_PT_DpOT0_
	movq	-8(%rbp), %rax
	movq	8(%rax), %rax
	leaq	32(%rax), %rdx
	movq	-8(%rbp), %rax
	movq	%rdx, 8(%rax)
	jmp	.L445
.L443:
	movq	-16(%rbp), %rdx
	movq	-8(%rbp), %rax
	movq	%rdx, %rsi
	movq	%rax, %rdi
	call	_ZNSt6vectorINSt7__cxx1112basic_stringIDsSt11char_traitsIDsESaIDsEEESaIS5_EE19_M_emplace_back_auxIJRKS5_EEEvDpOT_
.L445:
	nop
	leave
	.cfi_def_cfa 7, 8
	ret
	.cfi_endproc
.LFE8315:
	.size	_ZNSt6vectorINSt7__cxx1112basic_stringIDsSt11char_traitsIDsESaIDsEEESaIS5_EE9push_backERKS5_, .-_ZNSt6vectorINSt7__cxx1112basic_stringIDsSt11char_traitsIDsESaIDsEEESaIS5_EE9push_backERKS5_
	.section	.text._ZSt4moveIRSt6vectorINSt7__cxx1112basic_stringIDsSt11char_traitsIDsESaIDsEEESaIS6_EEEONSt16remove_referenceIT_E4typeEOSB_,"axG",@progbits,_ZSt4moveIRSt6vectorINSt7__cxx1112basic_stringIDsSt11char_traitsIDsESaIDsEEESaIS6_EEEONSt16remove_referenceIT_E4typeEOSB_,comdat
	.weak	_ZSt4moveIRSt6vectorINSt7__cxx1112basic_stringIDsSt11char_traitsIDsESaIDsEEESaIS6_EEEONSt16remove_referenceIT_E4typeEOSB_
	.type	_ZSt4moveIRSt6vectorINSt7__cxx1112basic_stringIDsSt11char_traitsIDsESaIDsEEESaIS6_EEEONSt16remove_referenceIT_E4typeEOSB_, @function
_ZSt4moveIRSt6vectorINSt7__cxx1112basic_stringIDsSt11char_traitsIDsESaIDsEEESaIS6_EEEONSt16remove_referenceIT_E4typeEOSB_:
.LFB8317:
	.cfi_startproc
	pushq	%rbp
	.cfi_def_cfa_offset 16
	.cfi_offset 6, -16
	movq	%rsp, %rbp
	.cfi_def_cfa_register 6
	movq	%rdi, -8(%rbp)
	movq	-8(%rbp), %rax
	popq	%rbp
	.cfi_def_cfa 7, 8
	ret
	.cfi_endproc
.LFE8317:
	.size	_ZSt4moveIRSt6vectorINSt7__cxx1112basic_stringIDsSt11char_traitsIDsESaIDsEEESaIS6_EEEONSt16remove_referenceIT_E4typeEOSB_, .-_ZSt4moveIRSt6vectorINSt7__cxx1112basic_stringIDsSt11char_traitsIDsESaIDsEEESaIS6_EEEONSt16remove_referenceIT_E4typeEOSB_
	.section	.text._ZNSt7__cxx1112basic_stringIDsSt11char_traitsIDsESaIDsEEixEm,"axG",@progbits,_ZNSt7__cxx1112basic_stringIDsSt11char_traitsIDsESaIDsEEixEm,comdat
	.align 2
	.weak	_ZNSt7__cxx1112basic_stringIDsSt11char_traitsIDsESaIDsEEixEm
	.type	_ZNSt7__cxx1112basic_stringIDsSt11char_traitsIDsESaIDsEEixEm, @function
_ZNSt7__cxx1112basic_stringIDsSt11char_traitsIDsESaIDsEEixEm:
.LFB8320:
	.cfi_startproc
	pushq	%rbp
	.cfi_def_cfa_offset 16
	.cfi_offset 6, -16
	movq	%rsp, %rbp
	.cfi_def_cfa_register 6
	subq	$16, %rsp
	movq	%rdi, -8(%rbp)
	movq	%rsi, -16(%rbp)
	movq	-8(%rbp), %rax
	movq	%rax, %rdi
	call	_ZNKSt7__cxx1112basic_stringIDsSt11char_traitsIDsESaIDsEE7_M_dataEv
	movq	%rax, %rdx
	movq	-16(%rbp), %rax
	addq	%rax, %rax
	addq	%rdx, %rax
	leave
	.cfi_def_cfa 7, 8
	ret
	.cfi_endproc
.LFE8320:
	.size	_ZNSt7__cxx1112basic_stringIDsSt11char_traitsIDsESaIDsEEixEm, .-_ZNSt7__cxx1112basic_stringIDsSt11char_traitsIDsESaIDsEEixEm
	.section	.text._ZNSt5dequeINSt7__cxx1112basic_stringIDsSt11char_traitsIDsESaIDsEEESaIS5_EEC2Ev,"axG",@progbits,_ZNSt5dequeINSt7__cxx1112basic_stringIDsSt11char_traitsIDsESaIDsEEESaIS5_EEC5Ev,comdat
	.align 2
	.weak	_ZNSt5dequeINSt7__cxx1112basic_stringIDsSt11char_traitsIDsESaIDsEEESaIS5_EEC2Ev
	.type	_ZNSt5dequeINSt7__cxx1112basic_stringIDsSt11char_traitsIDsESaIDsEEESaIS5_EEC2Ev, @function
_ZNSt5dequeINSt7__cxx1112basic_stringIDsSt11char_traitsIDsESaIDsEEESaIS5_EEC2Ev:
.LFB8322:
	.cfi_startproc
	pushq	%rbp
	.cfi_def_cfa_offset 16
	.cfi_offset 6, -16
	movq	%rsp, %rbp
	.cfi_def_cfa_register 6
	subq	$16, %rsp
	movq	%rdi, -8(%rbp)
	movq	-8(%rbp), %rax
	movq	%rax, %rdi
	call	_ZNSt11_Deque_baseINSt7__cxx1112basic_stringIDsSt11char_traitsIDsESaIDsEEESaIS5_EEC2Ev
	nop
	leave
	.cfi_def_cfa 7, 8
	ret
	.cfi_endproc
.LFE8322:
	.size	_ZNSt5dequeINSt7__cxx1112basic_stringIDsSt11char_traitsIDsESaIDsEEESaIS5_EEC2Ev, .-_ZNSt5dequeINSt7__cxx1112basic_stringIDsSt11char_traitsIDsESaIDsEEESaIS5_EEC2Ev
	.weak	_ZNSt5dequeINSt7__cxx1112basic_stringIDsSt11char_traitsIDsESaIDsEEESaIS5_EEC1Ev
	.set	_ZNSt5dequeINSt7__cxx1112basic_stringIDsSt11char_traitsIDsESaIDsEEESaIS5_EEC1Ev,_ZNSt5dequeINSt7__cxx1112basic_stringIDsSt11char_traitsIDsESaIDsEEESaIS5_EEC2Ev
	.section	.text._ZNSt5dequeINSt7__cxx1112basic_stringIDsSt11char_traitsIDsESaIDsEEESaIS5_EED2Ev,"axG",@progbits,_ZNSt5dequeINSt7__cxx1112basic_stringIDsSt11char_traitsIDsESaIDsEEESaIS5_EED5Ev,comdat
	.align 2
	.weak	_ZNSt5dequeINSt7__cxx1112basic_stringIDsSt11char_traitsIDsESaIDsEEESaIS5_EED2Ev
	.type	_ZNSt5dequeINSt7__cxx1112basic_stringIDsSt11char_traitsIDsESaIDsEEESaIS5_EED2Ev, @function
_ZNSt5dequeINSt7__cxx1112basic_stringIDsSt11char_traitsIDsESaIDsEEESaIS5_EED2Ev:
.LFB8325:
	.cfi_startproc
	.cfi_personality 0x3,__gxx_personality_v0
	.cfi_lsda 0x3,.LLSDA8325
	pushq	%rbp
	.cfi_def_cfa_offset 16
	.cfi_offset 6, -16
	movq	%rsp, %rbp
	.cfi_def_cfa_register 6
	pushq	%rbx
	subq	$104, %rsp
	.cfi_offset 3, -24
	movq	%rdi, -104(%rbp)
	movq	%fs:40, %rax
	movq	%rax, -24(%rbp)
	xorl	%eax, %eax
	movq	-104(%rbp), %rax
	movq	%rax, %rdi
	call	_ZNSt11_Deque_baseINSt7__cxx1112basic_stringIDsSt11char_traitsIDsESaIDsEEESaIS5_EE19_M_get_Tp_allocatorEv
	movq	%rax, %rbx
	leaq	-64(%rbp), %rax
	movq	-104(%rbp), %rdx
	movq	%rdx, %rsi
	movq	%rax, %rdi
	call	_ZNSt5dequeINSt7__cxx1112basic_stringIDsSt11char_traitsIDsESaIDsEEESaIS5_EE3endEv
	leaq	-96(%rbp), %rax
	movq	-104(%rbp), %rdx
	movq	%rdx, %rsi
	movq	%rax, %rdi
	call	_ZNSt5dequeINSt7__cxx1112basic_stringIDsSt11char_traitsIDsESaIDsEEESaIS5_EE5beginEv
	leaq	-64(%rbp), %rdx
	leaq	-96(%rbp), %rsi
	movq	-104(%rbp), %rax
	movq	%rbx, %rcx
	movq	%rax, %rdi
	call	_ZNSt5dequeINSt7__cxx1112basic_stringIDsSt11char_traitsIDsESaIDsEEESaIS5_EE15_M_destroy_dataESt15_Deque_iteratorIS5_RS5_PS5_ESB_RKS6_
	movq	-104(%rbp), %rax
	movq	%rax, %rdi
	call	_ZNSt11_Deque_baseINSt7__cxx1112basic_stringIDsSt11char_traitsIDsESaIDsEEESaIS5_EED2Ev
	nop
	movq	-24(%rbp), %rax
	xorq	%fs:40, %rax
	je	.L452
	call	__stack_chk_fail
.L452:
	addq	$104, %rsp
	popq	%rbx
	popq	%rbp
	.cfi_def_cfa 7, 8
	ret
	.cfi_endproc
.LFE8325:
	.section	.gcc_except_table
.LLSDA8325:
	.byte	0xff
	.byte	0xff
	.byte	0x1
	.uleb128 .LLSDACSE8325-.LLSDACSB8325
.LLSDACSB8325:
.LLSDACSE8325:
	.section	.text._ZNSt5dequeINSt7__cxx1112basic_stringIDsSt11char_traitsIDsESaIDsEEESaIS5_EED2Ev,"axG",@progbits,_ZNSt5dequeINSt7__cxx1112basic_stringIDsSt11char_traitsIDsESaIDsEEESaIS5_EED5Ev,comdat
	.size	_ZNSt5dequeINSt7__cxx1112basic_stringIDsSt11char_traitsIDsESaIDsEEESaIS5_EED2Ev, .-_ZNSt5dequeINSt7__cxx1112basic_stringIDsSt11char_traitsIDsESaIDsEEESaIS5_EED2Ev
	.weak	_ZNSt5dequeINSt7__cxx1112basic_stringIDsSt11char_traitsIDsESaIDsEEESaIS5_EED1Ev
	.set	_ZNSt5dequeINSt7__cxx1112basic_stringIDsSt11char_traitsIDsESaIDsEEESaIS5_EED1Ev,_ZNSt5dequeINSt7__cxx1112basic_stringIDsSt11char_traitsIDsESaIDsEEESaIS5_EED2Ev
	.section	.text._ZSt4moveIRSt5dequeINSt7__cxx1112basic_stringIDsSt11char_traitsIDsESaIDsEEESaIS6_EEEONSt16remove_referenceIT_E4typeEOSB_,"axG",@progbits,_ZSt4moveIRSt5dequeINSt7__cxx1112basic_stringIDsSt11char_traitsIDsESaIDsEEESaIS6_EEEONSt16remove_referenceIT_E4typeEOSB_,comdat
	.weak	_ZSt4moveIRSt5dequeINSt7__cxx1112basic_stringIDsSt11char_traitsIDsESaIDsEEESaIS6_EEEONSt16remove_referenceIT_E4typeEOSB_
	.type	_ZSt4moveIRSt5dequeINSt7__cxx1112basic_stringIDsSt11char_traitsIDsESaIDsEEESaIS6_EEEONSt16remove_referenceIT_E4typeEOSB_, @function
_ZSt4moveIRSt5dequeINSt7__cxx1112basic_stringIDsSt11char_traitsIDsESaIDsEEESaIS6_EEEONSt16remove_referenceIT_E4typeEOSB_:
.LFB8328:
	.cfi_startproc
	pushq	%rbp
	.cfi_def_cfa_offset 16
	.cfi_offset 6, -16
	movq	%rsp, %rbp
	.cfi_def_cfa_register 6
	movq	%rdi, -8(%rbp)
	movq	-8(%rbp), %rax
	popq	%rbp
	.cfi_def_cfa 7, 8
	ret
	.cfi_endproc
.LFE8328:
	.size	_ZSt4moveIRSt5dequeINSt7__cxx1112basic_stringIDsSt11char_traitsIDsESaIDsEEESaIS6_EEEONSt16remove_referenceIT_E4typeEOSB_, .-_ZSt4moveIRSt5dequeINSt7__cxx1112basic_stringIDsSt11char_traitsIDsESaIDsEEESaIS6_EEEONSt16remove_referenceIT_E4typeEOSB_
	.section	.text._ZNSt5stackINSt7__cxx1112basic_stringIDsSt11char_traitsIDsESaIDsEEESt5dequeIS5_SaIS5_EEEC2EOS8_,"axG",@progbits,_ZNSt5stackINSt7__cxx1112basic_stringIDsSt11char_traitsIDsESaIDsEEESt5dequeIS5_SaIS5_EEEC5EOS8_,comdat
	.align 2
	.weak	_ZNSt5stackINSt7__cxx1112basic_stringIDsSt11char_traitsIDsESaIDsEEESt5dequeIS5_SaIS5_EEEC2EOS8_
	.type	_ZNSt5stackINSt7__cxx1112basic_stringIDsSt11char_traitsIDsESaIDsEEESt5dequeIS5_SaIS5_EEEC2EOS8_, @function
_ZNSt5stackINSt7__cxx1112basic_stringIDsSt11char_traitsIDsESaIDsEEESt5dequeIS5_SaIS5_EEEC2EOS8_:
.LFB8329:
	.cfi_startproc
	pushq	%rbp
	.cfi_def_cfa_offset 16
	.cfi_offset 6, -16
	movq	%rsp, %rbp
	.cfi_def_cfa_register 6
	subq	$16, %rsp
	movq	%rdi, -8(%rbp)
	movq	%rsi, -16(%rbp)
	movq	-16(%rbp), %rax
	movq	%rax, %rdi
	call	_ZSt4moveIRSt5dequeINSt7__cxx1112basic_stringIDsSt11char_traitsIDsESaIDsEEESaIS6_EEEONSt16remove_referenceIT_E4typeEOSB_
	movq	%rax, %rdx
	movq	-8(%rbp), %rax
	movq	%rdx, %rsi
	movq	%rax, %rdi
	call	_ZNSt5dequeINSt7__cxx1112basic_stringIDsSt11char_traitsIDsESaIDsEEESaIS5_EEC1EOS7_
	nop
	leave
	.cfi_def_cfa 7, 8
	ret
	.cfi_endproc
.LFE8329:
	.size	_ZNSt5stackINSt7__cxx1112basic_stringIDsSt11char_traitsIDsESaIDsEEESt5dequeIS5_SaIS5_EEEC2EOS8_, .-_ZNSt5stackINSt7__cxx1112basic_stringIDsSt11char_traitsIDsESaIDsEEESt5dequeIS5_SaIS5_EEEC2EOS8_
	.weak	_ZNSt5stackINSt7__cxx1112basic_stringIDsSt11char_traitsIDsESaIDsEEESt5dequeIS5_SaIS5_EEEC1EOS8_
	.set	_ZNSt5stackINSt7__cxx1112basic_stringIDsSt11char_traitsIDsESaIDsEEESt5dequeIS5_SaIS5_EEEC1EOS8_,_ZNSt5stackINSt7__cxx1112basic_stringIDsSt11char_traitsIDsESaIDsEEESt5dequeIS5_SaIS5_EEEC2EOS8_
	.section	.text._ZSteqIDsSt11char_traitsIDsESaIDsEEbRKNSt7__cxx1112basic_stringIT_T0_T1_EEPKS5_,"axG",@progbits,_ZSteqIDsSt11char_traitsIDsESaIDsEEbRKNSt7__cxx1112basic_stringIT_T0_T1_EEPKS5_,comdat
	.weak	_ZSteqIDsSt11char_traitsIDsESaIDsEEbRKNSt7__cxx1112basic_stringIT_T0_T1_EEPKS5_
	.type	_ZSteqIDsSt11char_traitsIDsESaIDsEEbRKNSt7__cxx1112basic_stringIT_T0_T1_EEPKS5_, @function
_ZSteqIDsSt11char_traitsIDsESaIDsEEbRKNSt7__cxx1112basic_stringIT_T0_T1_EEPKS5_:
.LFB8331:
	.cfi_startproc
	pushq	%rbp
	.cfi_def_cfa_offset 16
	.cfi_offset 6, -16
	movq	%rsp, %rbp
	.cfi_def_cfa_register 6
	subq	$16, %rsp
	movq	%rdi, -8(%rbp)
	movq	%rsi, -16(%rbp)
	movq	-16(%rbp), %rdx
	movq	-8(%rbp), %rax
	movq	%rdx, %rsi
	movq	%rax, %rdi
	call	_ZNKSt7__cxx1112basic_stringIDsSt11char_traitsIDsESaIDsEE7compareEPKDs
	testl	%eax, %eax
	sete	%al
	leave
	.cfi_def_cfa 7, 8
	ret
	.cfi_endproc
.LFE8331:
	.size	_ZSteqIDsSt11char_traitsIDsESaIDsEEbRKNSt7__cxx1112basic_stringIT_T0_T1_EEPKS5_, .-_ZSteqIDsSt11char_traitsIDsESaIDsEEbRKNSt7__cxx1112basic_stringIT_T0_T1_EEPKS5_
	.section	.text._ZNSt5stackINSt7__cxx1112basic_stringIDsSt11char_traitsIDsESaIDsEEESt5dequeIS5_SaIS5_EEE4pushERKS5_,"axG",@progbits,_ZNSt5stackINSt7__cxx1112basic_stringIDsSt11char_traitsIDsESaIDsEEESt5dequeIS5_SaIS5_EEE4pushERKS5_,comdat
	.align 2
	.weak	_ZNSt5stackINSt7__cxx1112basic_stringIDsSt11char_traitsIDsESaIDsEEESt5dequeIS5_SaIS5_EEE4pushERKS5_
	.type	_ZNSt5stackINSt7__cxx1112basic_stringIDsSt11char_traitsIDsESaIDsEEESt5dequeIS5_SaIS5_EEE4pushERKS5_, @function
_ZNSt5stackINSt7__cxx1112basic_stringIDsSt11char_traitsIDsESaIDsEEESt5dequeIS5_SaIS5_EEE4pushERKS5_:
.LFB8332:
	.cfi_startproc
	pushq	%rbp
	.cfi_def_cfa_offset 16
	.cfi_offset 6, -16
	movq	%rsp, %rbp
	.cfi_def_cfa_register 6
	subq	$16, %rsp
	movq	%rdi, -8(%rbp)
	movq	%rsi, -16(%rbp)
	movq	-8(%rbp), %rax
	movq	-16(%rbp), %rdx
	movq	%rdx, %rsi
	movq	%rax, %rdi
	call	_ZNSt5dequeINSt7__cxx1112basic_stringIDsSt11char_traitsIDsESaIDsEEESaIS5_EE9push_backERKS5_
	nop
	leave
	.cfi_def_cfa 7, 8
	ret
	.cfi_endproc
.LFE8332:
	.size	_ZNSt5stackINSt7__cxx1112basic_stringIDsSt11char_traitsIDsESaIDsEEESt5dequeIS5_SaIS5_EEE4pushERKS5_, .-_ZNSt5stackINSt7__cxx1112basic_stringIDsSt11char_traitsIDsESaIDsEEESt5dequeIS5_SaIS5_EEE4pushERKS5_
	.section	.text._ZNKSt5stackINSt7__cxx1112basic_stringIDsSt11char_traitsIDsESaIDsEEESt5dequeIS5_SaIS5_EEE5emptyEv,"axG",@progbits,_ZNKSt5stackINSt7__cxx1112basic_stringIDsSt11char_traitsIDsESaIDsEEESt5dequeIS5_SaIS5_EEE5emptyEv,comdat
	.align 2
	.weak	_ZNKSt5stackINSt7__cxx1112basic_stringIDsSt11char_traitsIDsESaIDsEEESt5dequeIS5_SaIS5_EEE5emptyEv
	.type	_ZNKSt5stackINSt7__cxx1112basic_stringIDsSt11char_traitsIDsESaIDsEEESt5dequeIS5_SaIS5_EEE5emptyEv, @function
_ZNKSt5stackINSt7__cxx1112basic_stringIDsSt11char_traitsIDsESaIDsEEESt5dequeIS5_SaIS5_EEE5emptyEv:
.LFB8333:
	.cfi_startproc
	pushq	%rbp
	.cfi_def_cfa_offset 16
	.cfi_offset 6, -16
	movq	%rsp, %rbp
	.cfi_def_cfa_register 6
	subq	$16, %rsp
	movq	%rdi, -8(%rbp)
	movq	-8(%rbp), %rax
	movq	%rax, %rdi
	call	_ZNKSt5dequeINSt7__cxx1112basic_stringIDsSt11char_traitsIDsESaIDsEEESaIS5_EE5emptyEv
	leave
	.cfi_def_cfa 7, 8
	ret
	.cfi_endproc
.LFE8333:
	.size	_ZNKSt5stackINSt7__cxx1112basic_stringIDsSt11char_traitsIDsESaIDsEEESt5dequeIS5_SaIS5_EEE5emptyEv, .-_ZNKSt5stackINSt7__cxx1112basic_stringIDsSt11char_traitsIDsESaIDsEEESt5dequeIS5_SaIS5_EEE5emptyEv
	.section	.text._ZNSt5stackINSt7__cxx1112basic_stringIDsSt11char_traitsIDsESaIDsEEESt5dequeIS5_SaIS5_EEE3popEv,"axG",@progbits,_ZNSt5stackINSt7__cxx1112basic_stringIDsSt11char_traitsIDsESaIDsEEESt5dequeIS5_SaIS5_EEE3popEv,comdat
	.align 2
	.weak	_ZNSt5stackINSt7__cxx1112basic_stringIDsSt11char_traitsIDsESaIDsEEESt5dequeIS5_SaIS5_EEE3popEv
	.type	_ZNSt5stackINSt7__cxx1112basic_stringIDsSt11char_traitsIDsESaIDsEEESt5dequeIS5_SaIS5_EEE3popEv, @function
_ZNSt5stackINSt7__cxx1112basic_stringIDsSt11char_traitsIDsESaIDsEEESt5dequeIS5_SaIS5_EEE3popEv:
.LFB8337:
	.cfi_startproc
	pushq	%rbp
	.cfi_def_cfa_offset 16
	.cfi_offset 6, -16
	movq	%rsp, %rbp
	.cfi_def_cfa_register 6
	subq	$16, %rsp
	movq	%rdi, -8(%rbp)
	movq	-8(%rbp), %rax
	movq	%rax, %rdi
	call	_ZNSt5dequeINSt7__cxx1112basic_stringIDsSt11char_traitsIDsESaIDsEEESaIS5_EE8pop_backEv
	nop
	leave
	.cfi_def_cfa 7, 8
	ret
	.cfi_endproc
.LFE8337:
	.size	_ZNSt5stackINSt7__cxx1112basic_stringIDsSt11char_traitsIDsESaIDsEEESt5dequeIS5_SaIS5_EEE3popEv, .-_ZNSt5stackINSt7__cxx1112basic_stringIDsSt11char_traitsIDsESaIDsEEESt5dequeIS5_SaIS5_EEE3popEv
	.section	.text._ZNSt6vectorINSt7__cxx1112basic_stringIDsSt11char_traitsIDsESaIDsEEESaIS5_EEaSEOS7_,"axG",@progbits,_ZNSt6vectorINSt7__cxx1112basic_stringIDsSt11char_traitsIDsESaIDsEEESaIS5_EEaSEOS7_,comdat
	.align 2
	.weak	_ZNSt6vectorINSt7__cxx1112basic_stringIDsSt11char_traitsIDsESaIDsEEESaIS5_EEaSEOS7_
	.type	_ZNSt6vectorINSt7__cxx1112basic_stringIDsSt11char_traitsIDsESaIDsEEESaIS5_EEaSEOS7_, @function
_ZNSt6vectorINSt7__cxx1112basic_stringIDsSt11char_traitsIDsESaIDsEEESaIS5_EEaSEOS7_:
.LFB8338:
	.cfi_startproc
	pushq	%rbp
	.cfi_def_cfa_offset 16
	.cfi_offset 6, -16
	movq	%rsp, %rbp
	.cfi_def_cfa_register 6
	pushq	%rbx
	subq	$40, %rsp
	.cfi_offset 3, -24
	movq	%rdi, -40(%rbp)
	movq	%rsi, -48(%rbp)
	movq	%fs:40, %rax
	movq	%rax, -24(%rbp)
	xorl	%eax, %eax
	movb	$1, -25(%rbp)
	movq	-48(%rbp), %rax
	movq	%rax, %rdi
	call	_ZSt4moveIRSt6vectorINSt7__cxx1112basic_stringIDsSt11char_traitsIDsESaIDsEEESaIS6_EEEONSt16remove_referenceIT_E4typeEOSB_
	movq	%rax, %rdx
	movq	-40(%rbp), %rax
	subq	$8, %rsp
	pushq	%rbx
	movq	%rdx, %rsi
	movq	%rax, %rdi
	call	_ZNSt6vectorINSt7__cxx1112basic_stringIDsSt11char_traitsIDsESaIDsEEESaIS5_EE14_M_move_assignEOS7_St17integral_constantIbLb1EE
	addq	$16, %rsp
	movq	-40(%rbp), %rax
	movq	-24(%rbp), %rcx
	xorq	%fs:40, %rcx
	je	.L464
	call	__stack_chk_fail
.L464:
	movq	-8(%rbp), %rbx
	leave
	.cfi_def_cfa 7, 8
	ret
	.cfi_endproc
.LFE8338:
	.size	_ZNSt6vectorINSt7__cxx1112basic_stringIDsSt11char_traitsIDsESaIDsEEESaIS5_EEaSEOS7_, .-_ZNSt6vectorINSt7__cxx1112basic_stringIDsSt11char_traitsIDsESaIDsEEESaIS5_EEaSEOS7_
	.section	.text._ZStplIcSt11char_traitsIcESaIcEENSt7__cxx1112basic_stringIT_T0_T1_EEPKS5_RKS8_,"axG",@progbits,_ZStplIcSt11char_traitsIcESaIcEENSt7__cxx1112basic_stringIT_T0_T1_EEPKS5_RKS8_,comdat
	.weak	_ZStplIcSt11char_traitsIcESaIcEENSt7__cxx1112basic_stringIT_T0_T1_EEPKS5_RKS8_
	.type	_ZStplIcSt11char_traitsIcESaIcEENSt7__cxx1112basic_stringIT_T0_T1_EEPKS5_RKS8_, @function
_ZStplIcSt11char_traitsIcESaIcEENSt7__cxx1112basic_stringIT_T0_T1_EEPKS5_RKS8_:
.LFB8340:
	.cfi_startproc
	.cfi_personality 0x3,__gxx_personality_v0
	.cfi_lsda 0x3,.LLSDA8340
	pushq	%rbp
	.cfi_def_cfa_offset 16
	.cfi_offset 6, -16
	movq	%rsp, %rbp
	.cfi_def_cfa_register 6
	pushq	%rbx
	subq	$56, %rsp
	.cfi_offset 3, -24
	movq	%rdi, -40(%rbp)
	movq	%rsi, -48(%rbp)
	movq	%rdx, -56(%rbp)
	movq	%fs:40, %rax
	movq	%rax, -24(%rbp)
	xorl	%eax, %eax
	movq	-48(%rbp), %rax
	movq	%rax, %rdi
	call	_ZNSt11char_traitsIcE6lengthEPKc
	movq	%rax, -32(%rbp)
	movq	-40(%rbp), %rax
	movq	%rax, %rdi
	call	_ZNSt7__cxx1112basic_stringIcSt11char_traitsIcESaIcEEC1Ev
	movq	-56(%rbp), %rax
	movq	%rax, %rdi
	call	_ZNKSt7__cxx1112basic_stringIcSt11char_traitsIcESaIcEE4sizeEv
	movq	%rax, %rdx
	movq	-32(%rbp), %rax
	addq	%rax, %rdx
	movq	-40(%rbp), %rax
	movq	%rdx, %rsi
	movq	%rax, %rdi
.LEHB83:
	call	_ZNSt7__cxx1112basic_stringIcSt11char_traitsIcESaIcEE7reserveEm
	movq	-32(%rbp), %rdx
	movq	-48(%rbp), %rcx
	movq	-40(%rbp), %rax
	movq	%rcx, %rsi
	movq	%rax, %rdi
	call	_ZNSt7__cxx1112basic_stringIcSt11char_traitsIcESaIcEE6appendEPKcm
	movq	-56(%rbp), %rdx
	movq	-40(%rbp), %rax
	movq	%rdx, %rsi
	movq	%rax, %rdi
	call	_ZNSt7__cxx1112basic_stringIcSt11char_traitsIcESaIcEE6appendERKS4_
.LEHE83:
	jmp	.L470
.L469:
	movq	%rax, %rbx
	movq	-40(%rbp), %rax
	movq	%rax, %rdi
	call	_ZNSt7__cxx1112basic_stringIcSt11char_traitsIcESaIcEED1Ev
	movq	%rbx, %rax
	movq	%rax, %rdi
.LEHB84:
	call	_Unwind_Resume
.LEHE84:
.L470:
	movq	-40(%rbp), %rax
	movq	-24(%rbp), %rcx
	xorq	%fs:40, %rcx
	je	.L468
	call	__stack_chk_fail
.L468:
	addq	$56, %rsp
	popq	%rbx
	popq	%rbp
	.cfi_def_cfa 7, 8
	ret
	.cfi_endproc
.LFE8340:
	.section	.gcc_except_table
.LLSDA8340:
	.byte	0xff
	.byte	0xff
	.byte	0x1
	.uleb128 .LLSDACSE8340-.LLSDACSB8340
.LLSDACSB8340:
	.uleb128 .LEHB83-.LFB8340
	.uleb128 .LEHE83-.LEHB83
	.uleb128 .L469-.LFB8340
	.uleb128 0
	.uleb128 .LEHB84-.LFB8340
	.uleb128 .LEHE84-.LEHB84
	.uleb128 0
	.uleb128 0
.LLSDACSE8340:
	.section	.text._ZStplIcSt11char_traitsIcESaIcEENSt7__cxx1112basic_stringIT_T0_T1_EEPKS5_RKS8_,"axG",@progbits,_ZStplIcSt11char_traitsIcESaIcEENSt7__cxx1112basic_stringIT_T0_T1_EEPKS5_RKS8_,comdat
	.size	_ZStplIcSt11char_traitsIcESaIcEENSt7__cxx1112basic_stringIT_T0_T1_EEPKS5_RKS8_, .-_ZStplIcSt11char_traitsIcESaIcEENSt7__cxx1112basic_stringIT_T0_T1_EEPKS5_RKS8_
	.section	.text._ZSt4moveIRNSt7__cxx1112basic_stringIDsSt11char_traitsIDsESaIDsEEEEONSt16remove_referenceIT_E4typeEOS8_,"axG",@progbits,_ZSt4moveIRNSt7__cxx1112basic_stringIDsSt11char_traitsIDsESaIDsEEEEONSt16remove_referenceIT_E4typeEOS8_,comdat
	.weak	_ZSt4moveIRNSt7__cxx1112basic_stringIDsSt11char_traitsIDsESaIDsEEEEONSt16remove_referenceIT_E4typeEOS8_
	.type	_ZSt4moveIRNSt7__cxx1112basic_stringIDsSt11char_traitsIDsESaIDsEEEEONSt16remove_referenceIT_E4typeEOS8_, @function
_ZSt4moveIRNSt7__cxx1112basic_stringIDsSt11char_traitsIDsESaIDsEEEEONSt16remove_referenceIT_E4typeEOS8_:
.LFB8358:
	.cfi_startproc
	pushq	%rbp
	.cfi_def_cfa_offset 16
	.cfi_offset 6, -16
	movq	%rsp, %rbp
	.cfi_def_cfa_register 6
	movq	%rdi, -8(%rbp)
	movq	-8(%rbp), %rax
	popq	%rbp
	.cfi_def_cfa 7, 8
	ret
	.cfi_endproc
.LFE8358:
	.size	_ZSt4moveIRNSt7__cxx1112basic_stringIDsSt11char_traitsIDsESaIDsEEEEONSt16remove_referenceIT_E4typeEOS8_, .-_ZSt4moveIRNSt7__cxx1112basic_stringIDsSt11char_traitsIDsESaIDsEEEEONSt16remove_referenceIT_E4typeEOS8_
	.section	.text._ZNSt6vectorINSt7__cxx1112basic_stringIDsSt11char_traitsIDsESaIDsEEESaIS5_EE9push_backEOS5_,"axG",@progbits,_ZNSt6vectorINSt7__cxx1112basic_stringIDsSt11char_traitsIDsESaIDsEEESaIS5_EE9push_backEOS5_,comdat
	.align 2
	.weak	_ZNSt6vectorINSt7__cxx1112basic_stringIDsSt11char_traitsIDsESaIDsEEESaIS5_EE9push_backEOS5_
	.type	_ZNSt6vectorINSt7__cxx1112basic_stringIDsSt11char_traitsIDsESaIDsEEESaIS5_EE9push_backEOS5_, @function
_ZNSt6vectorINSt7__cxx1112basic_stringIDsSt11char_traitsIDsESaIDsEEESaIS5_EE9push_backEOS5_:
.LFB8357:
	.cfi_startproc
	pushq	%rbp
	.cfi_def_cfa_offset 16
	.cfi_offset 6, -16
	movq	%rsp, %rbp
	.cfi_def_cfa_register 6
	subq	$16, %rsp
	movq	%rdi, -8(%rbp)
	movq	%rsi, -16(%rbp)
	movq	-16(%rbp), %rax
	movq	%rax, %rdi
	call	_ZSt4moveIRNSt7__cxx1112basic_stringIDsSt11char_traitsIDsESaIDsEEEEONSt16remove_referenceIT_E4typeEOS8_
	movq	%rax, %rdx
	movq	-8(%rbp), %rax
	movq	%rdx, %rsi
	movq	%rax, %rdi
	call	_ZNSt6vectorINSt7__cxx1112basic_stringIDsSt11char_traitsIDsESaIDsEEESaIS5_EE12emplace_backIJS5_EEEvDpOT_
	nop
	leave
	.cfi_def_cfa 7, 8
	ret
	.cfi_endproc
.LFE8357:
	.size	_ZNSt6vectorINSt7__cxx1112basic_stringIDsSt11char_traitsIDsESaIDsEEESaIS5_EE9push_backEOS5_, .-_ZNSt6vectorINSt7__cxx1112basic_stringIDsSt11char_traitsIDsESaIDsEEESaIS5_EE9push_backEOS5_
	.section	.text._ZNK9__gnu_cxx17__normal_iteratorIPNSt7__cxx1112basic_stringIDsSt11char_traitsIDsESaIDsEEESt6vectorIS6_SaIS6_EEEplEl,"axG",@progbits,_ZNK9__gnu_cxx17__normal_iteratorIPNSt7__cxx1112basic_stringIDsSt11char_traitsIDsESaIDsEEESt6vectorIS6_SaIS6_EEEplEl,comdat
	.align 2
	.weak	_ZNK9__gnu_cxx17__normal_iteratorIPNSt7__cxx1112basic_stringIDsSt11char_traitsIDsESaIDsEEESt6vectorIS6_SaIS6_EEEplEl
	.type	_ZNK9__gnu_cxx17__normal_iteratorIPNSt7__cxx1112basic_stringIDsSt11char_traitsIDsESaIDsEEESt6vectorIS6_SaIS6_EEEplEl, @function
_ZNK9__gnu_cxx17__normal_iteratorIPNSt7__cxx1112basic_stringIDsSt11char_traitsIDsESaIDsEEESt6vectorIS6_SaIS6_EEEplEl:
.LFB8359:
	.cfi_startproc
	pushq	%rbp
	.cfi_def_cfa_offset 16
	.cfi_offset 6, -16
	movq	%rsp, %rbp
	.cfi_def_cfa_register 6
	subq	$48, %rsp
	movq	%rdi, -40(%rbp)
	movq	%rsi, -48(%rbp)
	movq	%fs:40, %rax
	movq	%rax, -8(%rbp)
	xorl	%eax, %eax
	movq	-40(%rbp), %rax
	movq	(%rax), %rax
	movq	-48(%rbp), %rdx
	salq	$5, %rdx
	addq	%rdx, %rax
	movq	%rax, -16(%rbp)
	leaq	-16(%rbp), %rdx
	leaq	-32(%rbp), %rax
	movq	%rdx, %rsi
	movq	%rax, %rdi
	call	_ZN9__gnu_cxx17__normal_iteratorIPNSt7__cxx1112basic_stringIDsSt11char_traitsIDsESaIDsEEESt6vectorIS6_SaIS6_EEEC1ERKS7_
	movq	-32(%rbp), %rax
	movq	-8(%rbp), %rcx
	xorq	%fs:40, %rcx
	je	.L476
	call	__stack_chk_fail
.L476:
	leave
	.cfi_def_cfa 7, 8
	ret
	.cfi_endproc
.LFE8359:
	.size	_ZNK9__gnu_cxx17__normal_iteratorIPNSt7__cxx1112basic_stringIDsSt11char_traitsIDsESaIDsEEESt6vectorIS6_SaIS6_EEEplEl, .-_ZNK9__gnu_cxx17__normal_iteratorIPNSt7__cxx1112basic_stringIDsSt11char_traitsIDsESaIDsEEESt6vectorIS6_SaIS6_EEEplEl
	.section	.text._ZNK9__gnu_cxx17__normal_iteratorIPNSt7__cxx1112basic_stringIDsSt11char_traitsIDsESaIDsEEESt6vectorIS6_SaIS6_EEEmiEl,"axG",@progbits,_ZNK9__gnu_cxx17__normal_iteratorIPNSt7__cxx1112basic_stringIDsSt11char_traitsIDsESaIDsEEESt6vectorIS6_SaIS6_EEEmiEl,comdat
	.align 2
	.weak	_ZNK9__gnu_cxx17__normal_iteratorIPNSt7__cxx1112basic_stringIDsSt11char_traitsIDsESaIDsEEESt6vectorIS6_SaIS6_EEEmiEl
	.type	_ZNK9__gnu_cxx17__normal_iteratorIPNSt7__cxx1112basic_stringIDsSt11char_traitsIDsESaIDsEEESt6vectorIS6_SaIS6_EEEmiEl, @function
_ZNK9__gnu_cxx17__normal_iteratorIPNSt7__cxx1112basic_stringIDsSt11char_traitsIDsESaIDsEEESt6vectorIS6_SaIS6_EEEmiEl:
.LFB8360:
	.cfi_startproc
	pushq	%rbp
	.cfi_def_cfa_offset 16
	.cfi_offset 6, -16
	movq	%rsp, %rbp
	.cfi_def_cfa_register 6
	subq	$48, %rsp
	movq	%rdi, -40(%rbp)
	movq	%rsi, -48(%rbp)
	movq	%fs:40, %rax
	movq	%rax, -8(%rbp)
	xorl	%eax, %eax
	movq	-40(%rbp), %rax
	movq	(%rax), %rax
	movq	-48(%rbp), %rdx
	salq	$5, %rdx
	negq	%rdx
	addq	%rdx, %rax
	movq	%rax, -16(%rbp)
	leaq	-16(%rbp), %rdx
	leaq	-32(%rbp), %rax
	movq	%rdx, %rsi
	movq	%rax, %rdi
	call	_ZN9__gnu_cxx17__normal_iteratorIPNSt7__cxx1112basic_stringIDsSt11char_traitsIDsESaIDsEEESt6vectorIS6_SaIS6_EEEC1ERKS7_
	movq	-32(%rbp), %rax
	movq	-8(%rbp), %rcx
	xorq	%fs:40, %rcx
	je	.L479
	call	__stack_chk_fail
.L479:
	leave
	.cfi_def_cfa 7, 8
	ret
	.cfi_endproc
.LFE8360:
	.size	_ZNK9__gnu_cxx17__normal_iteratorIPNSt7__cxx1112basic_stringIDsSt11char_traitsIDsESaIDsEEESt6vectorIS6_SaIS6_EEEmiEl, .-_ZNK9__gnu_cxx17__normal_iteratorIPNSt7__cxx1112basic_stringIDsSt11char_traitsIDsESaIDsEEESt6vectorIS6_SaIS6_EEEmiEl
	.section	.text._ZN9__gnu_cxx17__normal_iteratorIPKNSt7__cxx1112basic_stringIDsSt11char_traitsIDsESaIDsEEESt6vectorIS6_SaIS6_EEEC2IPS6_EERKNS0_IT_NS_11__enable_ifIXsrSt10__are_sameISF_SE_E7__valueESB_E6__typeEEE,"axG",@progbits,_ZN9__gnu_cxx17__normal_iteratorIPKNSt7__cxx1112basic_stringIDsSt11char_traitsIDsESaIDsEEESt6vectorIS6_SaIS6_EEEC5IPS6_EERKNS0_IT_NS_11__enable_ifIXsrSt10__are_sameISF_SE_E7__valueESB_E6__typeEEE,comdat
	.align 2
	.weak	_ZN9__gnu_cxx17__normal_iteratorIPKNSt7__cxx1112basic_stringIDsSt11char_traitsIDsESaIDsEEESt6vectorIS6_SaIS6_EEEC2IPS6_EERKNS0_IT_NS_11__enable_ifIXsrSt10__are_sameISF_SE_E7__valueESB_E6__typeEEE
	.type	_ZN9__gnu_cxx17__normal_iteratorIPKNSt7__cxx1112basic_stringIDsSt11char_traitsIDsESaIDsEEESt6vectorIS6_SaIS6_EEEC2IPS6_EERKNS0_IT_NS_11__enable_ifIXsrSt10__are_sameISF_SE_E7__valueESB_E6__typeEEE, @function
_ZN9__gnu_cxx17__normal_iteratorIPKNSt7__cxx1112basic_stringIDsSt11char_traitsIDsESaIDsEEESt6vectorIS6_SaIS6_EEEC2IPS6_EERKNS0_IT_NS_11__enable_ifIXsrSt10__are_sameISF_SE_E7__valueESB_E6__typeEEE:
.LFB8362:
	.cfi_startproc
	pushq	%rbp
	.cfi_def_cfa_offset 16
	.cfi_offset 6, -16
	movq	%rsp, %rbp
	.cfi_def_cfa_register 6
	subq	$16, %rsp
	movq	%rdi, -8(%rbp)
	movq	%rsi, -16(%rbp)
	movq	-16(%rbp), %rax
	movq	%rax, %rdi
	call	_ZNK9__gnu_cxx17__normal_iteratorIPNSt7__cxx1112basic_stringIDsSt11char_traitsIDsESaIDsEEESt6vectorIS6_SaIS6_EEE4baseEv
	movq	(%rax), %rdx
	movq	-8(%rbp), %rax
	movq	%rdx, (%rax)
	nop
	leave
	.cfi_def_cfa 7, 8
	ret
	.cfi_endproc
.LFE8362:
	.size	_ZN9__gnu_cxx17__normal_iteratorIPKNSt7__cxx1112basic_stringIDsSt11char_traitsIDsESaIDsEEESt6vectorIS6_SaIS6_EEEC2IPS6_EERKNS0_IT_NS_11__enable_ifIXsrSt10__are_sameISF_SE_E7__valueESB_E6__typeEEE, .-_ZN9__gnu_cxx17__normal_iteratorIPKNSt7__cxx1112basic_stringIDsSt11char_traitsIDsESaIDsEEESt6vectorIS6_SaIS6_EEEC2IPS6_EERKNS0_IT_NS_11__enable_ifIXsrSt10__are_sameISF_SE_E7__valueESB_E6__typeEEE
	.weak	_ZN9__gnu_cxx17__normal_iteratorIPKNSt7__cxx1112basic_stringIDsSt11char_traitsIDsESaIDsEEESt6vectorIS6_SaIS6_EEEC1IPS6_EERKNS0_IT_NS_11__enable_ifIXsrSt10__are_sameISF_SE_E7__valueESB_E6__typeEEE
	.set	_ZN9__gnu_cxx17__normal_iteratorIPKNSt7__cxx1112basic_stringIDsSt11char_traitsIDsESaIDsEEESt6vectorIS6_SaIS6_EEEC1IPS6_EERKNS0_IT_NS_11__enable_ifIXsrSt10__are_sameISF_SE_E7__valueESB_E6__typeEEE,_ZN9__gnu_cxx17__normal_iteratorIPKNSt7__cxx1112basic_stringIDsSt11char_traitsIDsESaIDsEEESt6vectorIS6_SaIS6_EEEC2IPS6_EERKNS0_IT_NS_11__enable_ifIXsrSt10__are_sameISF_SE_E7__valueESB_E6__typeEEE
	.section	.text._ZNSt6vectorINSt7__cxx1112basic_stringIDsSt11char_traitsIDsESaIDsEEESaIS5_EE5eraseEN9__gnu_cxx17__normal_iteratorIPKS5_S7_EE,"axG",@progbits,_ZNSt6vectorINSt7__cxx1112basic_stringIDsSt11char_traitsIDsESaIDsEEESaIS5_EE5eraseEN9__gnu_cxx17__normal_iteratorIPKS5_S7_EE,comdat
	.align 2
	.weak	_ZNSt6vectorINSt7__cxx1112basic_stringIDsSt11char_traitsIDsESaIDsEEESaIS5_EE5eraseEN9__gnu_cxx17__normal_iteratorIPKS5_S7_EE
	.type	_ZNSt6vectorINSt7__cxx1112basic_stringIDsSt11char_traitsIDsESaIDsEEESaIS5_EE5eraseEN9__gnu_cxx17__normal_iteratorIPKS5_S7_EE, @function
_ZNSt6vectorINSt7__cxx1112basic_stringIDsSt11char_traitsIDsESaIDsEEESaIS5_EE5eraseEN9__gnu_cxx17__normal_iteratorIPKS5_S7_EE:
.LFB8364:
	.cfi_startproc
	pushq	%rbp
	.cfi_def_cfa_offset 16
	.cfi_offset 6, -16
	movq	%rsp, %rbp
	.cfi_def_cfa_register 6
	pushq	%rbx
	subq	$56, %rsp
	.cfi_offset 3, -24
	movq	%rdi, -56(%rbp)
	movq	%rsi, -64(%rbp)
	movq	%fs:40, %rax
	movq	%rax, -24(%rbp)
	xorl	%eax, %eax
	movq	-56(%rbp), %rax
	movq	%rax, %rdi
	call	_ZNKSt6vectorINSt7__cxx1112basic_stringIDsSt11char_traitsIDsESaIDsEEESaIS5_EE6cbeginEv
	movq	%rax, -32(%rbp)
	leaq	-32(%rbp), %rdx
	leaq	-64(%rbp), %rax
	movq	%rdx, %rsi
	movq	%rax, %rdi
	call	_ZN9__gnu_cxxmiIPKNSt7__cxx1112basic_stringIDsSt11char_traitsIDsESaIDsEEESt6vectorIS6_SaIS6_EEEENS_17__normal_iteratorIT_T0_E15difference_typeERKSF_SI_
	movq	%rax, %rbx
	movq	-56(%rbp), %rax
	movq	%rax, %rdi
	call	_ZNSt6vectorINSt7__cxx1112basic_stringIDsSt11char_traitsIDsESaIDsEEESaIS5_EE5beginEv
	movq	%rax, -48(%rbp)
	leaq	-48(%rbp), %rax
	movq	%rbx, %rsi
	movq	%rax, %rdi
	call	_ZNK9__gnu_cxx17__normal_iteratorIPNSt7__cxx1112basic_stringIDsSt11char_traitsIDsESaIDsEEESt6vectorIS6_SaIS6_EEEplEl
	movq	%rax, %rdx
	movq	-56(%rbp), %rax
	movq	%rdx, %rsi
	movq	%rax, %rdi
	call	_ZNSt6vectorINSt7__cxx1112basic_stringIDsSt11char_traitsIDsESaIDsEEESaIS5_EE8_M_eraseEN9__gnu_cxx17__normal_iteratorIPS5_S7_EE
	movq	-24(%rbp), %rcx
	xorq	%fs:40, %rcx
	je	.L483
	call	__stack_chk_fail
.L483:
	addq	$56, %rsp
	popq	%rbx
	popq	%rbp
	.cfi_def_cfa 7, 8
	ret
	.cfi_endproc
.LFE8364:
	.size	_ZNSt6vectorINSt7__cxx1112basic_stringIDsSt11char_traitsIDsESaIDsEEESaIS5_EE5eraseEN9__gnu_cxx17__normal_iteratorIPKS5_S7_EE, .-_ZNSt6vectorINSt7__cxx1112basic_stringIDsSt11char_traitsIDsESaIDsEEESaIS5_EE5eraseEN9__gnu_cxx17__normal_iteratorIPKS5_S7_EE
	.section	.text._ZNSt6vectorINSt7__cxx1112basic_stringIDsSt11char_traitsIDsESaIDsEEESaIS5_EE6insertEN9__gnu_cxx17__normal_iteratorIPKS5_S7_EERSA_,"axG",@progbits,_ZNSt6vectorINSt7__cxx1112basic_stringIDsSt11char_traitsIDsESaIDsEEESaIS5_EE6insertEN9__gnu_cxx17__normal_iteratorIPKS5_S7_EERSA_,comdat
	.align 2
	.weak	_ZNSt6vectorINSt7__cxx1112basic_stringIDsSt11char_traitsIDsESaIDsEEESaIS5_EE6insertEN9__gnu_cxx17__normal_iteratorIPKS5_S7_EERSA_
	.type	_ZNSt6vectorINSt7__cxx1112basic_stringIDsSt11char_traitsIDsESaIDsEEESaIS5_EE6insertEN9__gnu_cxx17__normal_iteratorIPKS5_S7_EERSA_, @function
_ZNSt6vectorINSt7__cxx1112basic_stringIDsSt11char_traitsIDsESaIDsEEESaIS5_EE6insertEN9__gnu_cxx17__normal_iteratorIPKS5_S7_EERSA_:
.LFB8365:
	.cfi_startproc
	.cfi_personality 0x3,__gxx_personality_v0
	.cfi_lsda 0x3,.LLSDA8365
	pushq	%rbp
	.cfi_def_cfa_offset 16
	.cfi_offset 6, -16
	movq	%rsp, %rbp
	.cfi_def_cfa_register 6
	pushq	%rbx
	subq	$152, %rsp
	.cfi_offset 3, -24
	movq	%rdi, -136(%rbp)
	movq	%rsi, -144(%rbp)
	movq	%rdx, -152(%rbp)
	movq	%fs:40, %rax
	movq	%rax, -24(%rbp)
	xorl	%eax, %eax
	movq	-136(%rbp), %rax
	movq	%rax, %rdi
	call	_ZNSt6vectorINSt7__cxx1112basic_stringIDsSt11char_traitsIDsESaIDsEEESaIS5_EE5beginEv
	movq	%rax, -80(%rbp)
	leaq	-80(%rbp), %rdx
	leaq	-144(%rbp), %rax
	movq	%rdx, %rsi
	movq	%rax, %rdi
	call	_ZN9__gnu_cxxmiIPKNSt7__cxx1112basic_stringIDsSt11char_traitsIDsESaIDsEEEPS6_St6vectorIS6_SaIS6_EEEEDTmicldtfp_4baseEcldtfp0_4baseEERKNS_17__normal_iteratorIT_T1_EERKNSE_IT0_SG_EE
	movq	%rax, -72(%rbp)
	movl	$0, %ebx
	movq	-136(%rbp), %rax
	movq	8(%rax), %rdx
	movq	-136(%rbp), %rax
	movq	16(%rax), %rax
	cmpq	%rax, %rdx
	je	.L485
	movq	-136(%rbp), %rax
	movq	%rax, %rdi
	call	_ZNSt6vectorINSt7__cxx1112basic_stringIDsSt11char_traitsIDsESaIDsEEESaIS5_EE3endEv
	movq	%rax, -128(%rbp)
	movl	$1, %ebx
	leaq	-128(%rbp), %rdx
	leaq	-144(%rbp), %rax
	movq	%rdx, %rsi
	movq	%rax, %rdi
	call	_ZN9__gnu_cxxeqIPKNSt7__cxx1112basic_stringIDsSt11char_traitsIDsESaIDsEEEPS6_St6vectorIS6_SaIS6_EEEEbRKNS_17__normal_iteratorIT_T1_EERKNSD_IT0_SF_EE
	testb	%al, %al
	je	.L485
	movl	$1, %eax
	jmp	.L486
.L485:
	movl	$0, %eax
.L486:
	testb	%bl, %bl
	testb	%al, %al
	je	.L488
	movq	-136(%rbp), %rax
	movq	8(%rax), %rcx
	movq	-136(%rbp), %rax
	movq	-152(%rbp), %rdx
	movq	%rcx, %rsi
	movq	%rax, %rdi
.LEHB85:
	call	_ZNSt16allocator_traitsISaINSt7__cxx1112basic_stringIDsSt11char_traitsIDsESaIDsEEEEE9constructIS5_JRKS5_EEEvRS6_PT_DpOT0_
	movq	-136(%rbp), %rax
	movq	8(%rax), %rax
	leaq	32(%rax), %rdx
	movq	-136(%rbp), %rax
	movq	%rdx, 8(%rax)
	jmp	.L489
.L488:
	movq	-136(%rbp), %rax
	movq	%rax, %rdi
	call	_ZNKSt6vectorINSt7__cxx1112basic_stringIDsSt11char_traitsIDsESaIDsEEESaIS5_EE6cbeginEv
	movq	%rax, -80(%rbp)
	leaq	-80(%rbp), %rdx
	leaq	-144(%rbp), %rax
	movq	%rdx, %rsi
	movq	%rax, %rdi
	call	_ZN9__gnu_cxxmiIPKNSt7__cxx1112basic_stringIDsSt11char_traitsIDsESaIDsEEESt6vectorIS6_SaIS6_EEEENS_17__normal_iteratorIT_T0_E15difference_typeERKSF_SI_
	movq	%rax, %rbx
	movq	-136(%rbp), %rax
	movq	%rax, %rdi
	call	_ZNSt6vectorINSt7__cxx1112basic_stringIDsSt11char_traitsIDsESaIDsEEESaIS5_EE5beginEv
	movq	%rax, -96(%rbp)
	leaq	-96(%rbp), %rax
	movq	%rbx, %rsi
	movq	%rax, %rdi
	call	_ZNK9__gnu_cxx17__normal_iteratorIPNSt7__cxx1112basic_stringIDsSt11char_traitsIDsESaIDsEEESt6vectorIS6_SaIS6_EEEplEl
	movq	%rax, -112(%rbp)
	movq	-136(%rbp), %rax
	movq	8(%rax), %rdx
	movq	-136(%rbp), %rax
	movq	16(%rax), %rax
	cmpq	%rax, %rdx
	je	.L490
	movq	-152(%rbp), %rdx
	leaq	-64(%rbp), %rax
	movq	%rdx, %rsi
	movq	%rax, %rdi
	call	_ZNSt7__cxx1112basic_stringIDsSt11char_traitsIDsESaIDsEEC1ERKS4_
.LEHE85:
	leaq	-64(%rbp), %rax
	movq	%rax, %rdi
	call	_ZSt4moveIRNSt7__cxx1112basic_stringIDsSt11char_traitsIDsESaIDsEEEEONSt16remove_referenceIT_E4typeEOS8_
	movq	%rax, %rdx
	movq	-112(%rbp), %rcx
	movq	-136(%rbp), %rax
	movq	%rcx, %rsi
	movq	%rax, %rdi
.LEHB86:
	call	_ZNSt6vectorINSt7__cxx1112basic_stringIDsSt11char_traitsIDsESaIDsEEESaIS5_EE13_M_insert_auxIJS5_EEEvN9__gnu_cxx17__normal_iteratorIPS5_S7_EEDpOT_
.LEHE86:
	leaq	-64(%rbp), %rax
	movq	%rax, %rdi
	call	_ZNSt7__cxx1112basic_stringIDsSt11char_traitsIDsESaIDsEED1Ev
	jmp	.L489
.L490:
	movq	-152(%rbp), %rdx
	movq	-112(%rbp), %rcx
	movq	-136(%rbp), %rax
	movq	%rcx, %rsi
	movq	%rax, %rdi
.LEHB87:
	call	_ZNSt6vectorINSt7__cxx1112basic_stringIDsSt11char_traitsIDsESaIDsEEESaIS5_EE13_M_insert_auxIJRKS5_EEEvN9__gnu_cxx17__normal_iteratorIPS5_S7_EEDpOT_
.L489:
	movq	-136(%rbp), %rax
	movq	(%rax), %rax
	movq	-72(%rbp), %rdx
	salq	$5, %rdx
	addq	%rdx, %rax
	movq	%rax, -80(%rbp)
	leaq	-80(%rbp), %rdx
	leaq	-96(%rbp), %rax
	movq	%rdx, %rsi
	movq	%rax, %rdi
	call	_ZN9__gnu_cxx17__normal_iteratorIPNSt7__cxx1112basic_stringIDsSt11char_traitsIDsESaIDsEEESt6vectorIS6_SaIS6_EEEC1ERKS7_
	movq	-96(%rbp), %rax
	movq	-24(%rbp), %rcx
	xorq	%fs:40, %rcx
	je	.L494
	jmp	.L496
.L495:
	movq	%rax, %rbx
	leaq	-64(%rbp), %rax
	movq	%rax, %rdi
	call	_ZNSt7__cxx1112basic_stringIDsSt11char_traitsIDsESaIDsEED1Ev
	movq	%rbx, %rax
	movq	%rax, %rdi
	call	_Unwind_Resume
.LEHE87:
.L496:
	call	__stack_chk_fail
.L494:
	addq	$152, %rsp
	popq	%rbx
	popq	%rbp
	.cfi_def_cfa 7, 8
	ret
	.cfi_endproc
.LFE8365:
	.section	.gcc_except_table
